31852125	23	44	Shenmayizhi decoction	CPM	SHENMAYIZHI DECOCTION
31852125	384	405	Shenmayizhi decoction	CPM	SHENMAYIZHI DECOCTION
31574841	17	41	Fuyuan Xingnao Decoction	CPM	FUYUAN XINGNAO DECOCTION
31574841	153	177	Fuyuan Xingnao Decoction	CPM	FUYUAN XINGNAO DECOCTION
31269467	91	111	Xiaoxuming decoction	CPM	XIAOXUMING DECOCTION
31269467	198	218	Xiaoxuming decoction	CPM	XIAOXUMING DECOCTION
31360720	200	220	Xiaoxuming decoction	CPM	XIAOXUMING DECOCTION
28822160	39	59	Xiaoxuming decoction	CPM	XIAOXUMING DECOCTION
28822160	203	223	Xiaoxuming decoction	CPM	XIAOXUMING DECOCTION
28822160	737	757	Xiaoxuming decoction	CPM	XIAOXUMING DECOCTION
23583540	0	20	Xiaoxuming decoction	CPM	XIAOXUMING DECOCTION
23583540	119	139	Xiaoxuming decoction	CPM	XIAOXUMING DECOCTION
12297489	0	20	Xiaoxuming decoction	CPM	XIAOXUMING DECOCTION
12297489	59	79	Xiaoxuming decoction	CPM	XIAOXUMING DECOCTION
12297489	384	404	Xiaoxuming decoction	CPM	XIAOXUMING DECOCTION
30836247	145	168	Naoluoxintong decoction	CPM	NAOLUOXINTONG DECOCTION
30836247	170	193	Naoluoxintong decoction	CPM	NAOLUOXINTONG DECOCTION
31090337	20	43	Buyang Huanwu Decoction	CPM	BUYANG HUANWU DECOCTION
31090337	194	217	Buyang Huanwu Decoction	CPM	BUYANG HUANWU DECOCTION
31090337	900	923	Buyang Huanwu Decoction	CPM	BUYANG HUANWU DECOCTION
31090337	2396	2419	Buyang Huanwu Decoction	CPM	BUYANG HUANWU DECOCTION
31090337	2472	2495	Buyang Huanwu Decoction	CPM	BUYANG HUANWU DECOCTION
29576055	0	23	Buyang Huanwu Decoction	CPM	BUYANG HUANWU DECOCTION
29576055	129	152	Buyang Huanwu Decoction	CPM	BUYANG HUANWU DECOCTION
30355926	0	23	Buyang Huanwu Decoction	CPM	BUYANG HUANWU DECOCTION
30355926	335	358	Buyang Huanwu Decoction	CPM	BUYANG HUANWU DECOCTION
27391841	175	198	Buyang Huanwu Decoction	CPM	BUYANG HUANWU DECOCTION
27245599	0	23	Buyang Huanwu Decoction	CPM	BUYANG HUANWU DECOCTION
27245599	341	364	Buyang Huanwu Decoction	CPM	BUYANG HUANWU DECOCTION
26492191	81	104	Buyang Huanwu Decoction	CPM	BUYANG HUANWU DECOCTION
26492191	314	337	Buyang Huanwu Decoction	CPM	BUYANG HUANWU DECOCTION
25796380	0	23	Buyang Huanwu Decoction	CPM	BUYANG HUANWU DECOCTION
25687091	96	119	Buyang Huanwu Decoction	CPM	BUYANG HUANWU DECOCTION
25886469	662	685	Buyang Huanwu Decoction	CPM	BUYANG HUANWU DECOCTION
25098259	0	23	Buyang Huanwu Decoction	CPM	BUYANG HUANWU DECOCTION
25098259	213	236	Buyang Huanwu Decoction	CPM	BUYANG HUANWU DECOCTION
24372105	141	164	Buyang Huanwu Decoction	CPM	BUYANG HUANWU DECOCTION
24311882	185	208	Buyang Huanwu Decoction	CPM	BUYANG HUANWU DECOCTION
22306289	169	192	Buyang Huanwu Decoction	CPM	BUYANG HUANWU DECOCTION
22306289	523	546	Buyang Huanwu Decoction	CPM	BUYANG HUANWU DECOCTION
22306289	717	740	Buyang Huanwu Decoction	CPM	BUYANG HUANWU DECOCTION
22306289	1381	1404	Buyang Huanwu Decoction	CPM	BUYANG HUANWU DECOCTION
22306289	1626	1649	Buyang Huanwu Decoction	CPM	BUYANG HUANWU DECOCTION
22306289	1721	1744	Buyang Huanwu Decoction	CPM	BUYANG HUANWU DECOCTION
22306289	1879	1902	Buyang Huanwu Decoction	CPM	BUYANG HUANWU DECOCTION
17692486	0	23	Buyang Huanwu Decoction	CPM	BUYANG HUANWU DECOCTION
17692486	217	240	Buyang Huanwu Decoction	CPM	BUYANG HUANWU DECOCTION
17692486	715	738	Buyang Huanwu Decoction	CPM	BUYANG HUANWU DECOCTION
17692486	1691	1714	Buyang Huanwu Decoction	CPM	BUYANG HUANWU DECOCTION
17692485	0	23	Buyang Huanwu Decoction	CPM	BUYANG HUANWU DECOCTION
17692485	126	149	Buyang Huanwu Decoction	CPM	BUYANG HUANWU DECOCTION
17633364	22	45	Buyang Huanwu Decoction	CPM	BUYANG HUANWU DECOCTION
17633364	188	211	Buyang Huanwu Decoction	CPM	BUYANG HUANWU DECOCTION
12850540	27	50	Buyang Huanwu Decoction	CPM	BUYANG HUANWU DECOCTION
12850540	129	152	Buyang Huanwu Decoction	CPM	BUYANG HUANWU DECOCTION
11477812	204	227	Buyang Huanwu Decoction	CPM	BUYANG HUANWU DECOCTION
31662991	64	87	Buyang Huanwu Decoction	CPM	BUYANG HUANWU DECOCTION
30564092	0	23	Buyang Huanwu Decoction	CPM	BUYANG HUANWU DECOCTION
30564092	203	226	Buyang Huanwu Decoction	CPM	BUYANG HUANWU DECOCTION
25126100	162	185	Buyang Huanwu Decoction	CPM	BUYANG HUANWU DECOCTION
25206543	0	23	Buyang Huanwu Decoction	CPM	BUYANG HUANWU DECOCTION
25206543	112	135	Buyang Huanwu Decoction	CPM	BUYANG HUANWU DECOCTION
25206543	434	457	Buyang Huanwu Decoction	CPM	BUYANG HUANWU DECOCTION
25206543	758	781	Buyang Huanwu Decoction	CPM	BUYANG HUANWU DECOCTION
25206543	1171	1194	Buyang Huanwu Decoction	CPM	BUYANG HUANWU DECOCTION
25206543	1224	1247	Buyang Huanwu Decoction	CPM	BUYANG HUANWU DECOCTION
23861695	109	132	Buyang Huanwu Decoction	CPM	BUYANG HUANWU DECOCTION
30704331	26	49	Buyang Huanwu decoction	CPM	BUYANG HUANWU DECOCTION
30704331	188	211	Buyang Huanwu decoction	CPM	BUYANG HUANWU DECOCTION
30704331	520	543	Buyang Huanwu decoction	CPM	BUYANG HUANWU DECOCTION
30704331	1357	1380	Buyang Huanwu decoction	CPM	BUYANG HUANWU DECOCTION
30645580	123	146	Buyang Huanwu decoction	CPM	BUYANG HUANWU DECOCTION
30645580	372	395	Buyang Huanwu decoction	CPM	BUYANG HUANWU DECOCTION
30868821	424	447	Buyang Huanwu decoction	CPM	BUYANG HUANWU DECOCTION
29945368	56	79	Buyang Huanwu decoction	CPM	BUYANG HUANWU DECOCTION
29945368	185	208	Buyang Huanwu decoction	CPM	BUYANG HUANWU DECOCTION
29945367	58	81	Buyang Huanwu decoction	CPM	BUYANG HUANWU DECOCTION
29945367	189	212	Buyang Huanwu decoction	CPM	BUYANG HUANWU DECOCTION
29945367	1069	1092	Buyang Huanwu decoction	CPM	BUYANG HUANWU DECOCTION
29933662	239	262	Buyang Huanwu decoction	CPM	BUYANG HUANWU DECOCTION
28351388	0	23	Buyang Huanwu decoction	CPM	BUYANG HUANWU DECOCTION
28351388	330	353	Buyang Huanwu decoction	CPM	BUYANG HUANWU DECOCTION
28351388	492	515	Buyang Huanwu decoction	CPM	BUYANG HUANWU DECOCTION
28351388	654	677	Buyang Huanwu decoction	CPM	BUYANG HUANWU DECOCTION
28351388	1186	1209	Buyang Huanwu decoction	CPM	BUYANG HUANWU DECOCTION
28351388	1424	1447	Buyang Huanwu decoction	CPM	BUYANG HUANWU DECOCTION
28351388	1587	1610	Buyang Huanwu decoction	CPM	BUYANG HUANWU DECOCTION
26239152	205	228	Buyang Huanwu decoction	CPM	BUYANG HUANWU DECOCTION
25796380	147	170	Buyang Huanwu decoction	CPM	BUYANG HUANWU DECOCTION
25687091	283	306	Buyang Huanwu decoction	CPM	BUYANG HUANWU DECOCTION
24599691	0	23	Buyang Huanwu decoction	CPM	BUYANG HUANWU DECOCTION
24599691	140	163	Buyang Huanwu decoction	CPM	BUYANG HUANWU DECOCTION
22306289	26	49	Buyang Huanwu decoction	CPM	BUYANG HUANWU DECOCTION
20977842	11	34	Buyang Huanwu decoction	CPM	BUYANG HUANWU DECOCTION
20977842	164	187	Buyang Huanwu decoction	CPM	BUYANG HUANWU DECOCTION
20977840	28	51	Buyang Huanwu decoction	CPM	BUYANG HUANWU DECOCTION
20977840	222	245	Buyang Huanwu decoction	CPM	BUYANG HUANWU DECOCTION
31662991	119	142	Buyang Huanwu decoction	CPM	BUYANG HUANWU DECOCTION
25368650	27	50	Buyang Huanwu decoction	CPM	BUYANG HUANWU DECOCTION
25368650	214	237	Buyang Huanwu decoction	CPM	BUYANG HUANWU DECOCTION
25368650	742	765	Buyang Huanwu decoction	CPM	BUYANG HUANWU DECOCTION
30989929	0	25	[Fangji Dihuang Decoction	CPM	[FANGJI DIHUANG DECOCTION
30989929	47	64	Fengyin Decoction	CPM	FENGYIN DECOCTION
30989929	156	173	Fengyin Decoction	CPM	FENGYIN DECOCTION
30989929	431	448	Fengyin Decoction	CPM	FENGYIN DECOCTION
30989929	856	873	Fengyin Decoction	CPM	FENGYIN DECOCTION
30989929	1	25	Fangji Dihuang Decoction	CPM	FANGJI DIHUANG DECOCTION
30989929	127	151	Fangji Dihuang Decoction	CPM	FANGJI DIHUANG DECOCTION
30989929	393	417	Fangji Dihuang Decoction	CPM	FANGJI DIHUANG DECOCTION
30989929	515	539	Fangji Dihuang Decoction	CPM	FANGJI DIHUANG DECOCTION
30218809	8	25	Huan Wu decoction	CPM	HUAN WU DECOCTION
30218809	193	210	Huan Wu Decoction	CPM	HUAN WU DECOCTION
30569662	0	25	Sanhuang Xiexin decoction	CPM	SANHUANG XIEXIN DECOCTION
30569662	137	162	Sanhuang Xiexin decoction	CPM	SANHUANG XIEXIN DECOCTION
30569662	472	497	Sanhuang Xiexin decoction	CPM	SANHUANG XIEXIN DECOCTION
30569662	605	630	Sanhuang Xiexin decoction	CPM	SANHUANG XIEXIN DECOCTION
29185359	0	23	Gualou Guizhi decoction	CPM	GUALOU GUIZHI DECOCTION
29185359	470	493	Gualou Guizhi decoction	CPM	GUALOU GUIZHI DECOCTION
25815894	24	47	Gualou Guizhi decoction	CPM	GUALOU GUIZHI DECOCTION
25815894	111	134	Gualou Guizhi decoction	CPM	GUALOU GUIZHI DECOCTION
25815521	29	52	Gualou Guizhi decoction	CPM	GUALOU GUIZHI DECOCTION
25815521	186	209	Gualou Guizhi decoction	CPM	GUALOU GUIZHI DECOCTION
25456424	27	50	Gualou Guizhi decoction	CPM	GUALOU GUIZHI DECOCTION
25456424	105	128	Gualou Guizhi decoction	CPM	GUALOU GUIZHI DECOCTION
25039192	206	229	Gualou Guizhi decoction	CPM	GUALOU GUIZHI DECOCTION
25039192	365	388	Gualou Guizhi decoction	CPM	GUALOU GUIZHI DECOCTION
29075304	146	169	Gualou Guizhi decoction	CPM	GUALOU GUIZHI DECOCTION
31792665	530	553	Gualou Guizhi decoction	CPM	GUALOU GUIZHI DECOCTION
30106053	0	23	Gualou Guizhi decoction	CPM	GUALOU GUIZHI DECOCTION
30106053	227	250	Gualou Guizhi decoction	CPM	GUALOU GUIZHI DECOCTION
26136945	46	69	Gualou Guizhi decoction	CPM	GUALOU GUIZHI DECOCTION
26136945	385	408	Gualou Guizhi decoction	CPM	GUALOU GUIZHI DECOCTION
30593220	24	47	xiebai guizhi decoction	CPM	XIEBAI GUIZHI DECOCTION
30593220	209	232	xiebai guizhi decoction	CPM	XIEBAI GUIZHI DECOCTION
30572459	63	87	Wuling powder) decoction	CPM	WULING POWDER) DECOCTION
30572459	1501	1519	by IJORS decoction	CPM	BY IJORS DECOCTION
29945367	453	475	Buyang Hanwu decoction	CPM	BUYANG HANWU DECOCTION
29360497	45	72	Huang-Lian Jie-Du decoction	CPM	HUANG-LIAN JIE-DU DECOCTION
29360497	167	194	Huang-Lian Jie-Du decoction	CPM	HUANG-LIAN JIE-DU DECOCTION
29615027	259	278	herbs (or decoction	CPM	HERBS (OR DECOCTION
29353203	777	798	obtained by decoction	CPM	OBTAINED BY DECOCTION
27779673	31	48	Gui Zhi decoction	CPM	GUI ZHI DECOCTION
27779673	245	262	Gui Zhi decoction	CPM	GUI ZHI DECOCTION
26260947	8	25	Gui Zhi decoction	CPM	GUI ZHI DECOCTION
26260947	228	245	Gui Zhi decoction	CPM	GUI ZHI DECOCTION
24378639	35	52	Gui Zhi decoction	CPM	GUI ZHI DECOCTION
24378639	112	129	Gui Zhi decoction	CPM	GUI ZHI DECOCTION
23563488	8	25	Gui Zhi decoction	CPM	GUI ZHI DECOCTION
23563488	443	460	Gui Zhi decoction	CPM	GUI ZHI DECOCTION
23443675	8	25	Gui Zhi decoction	CPM	GUI ZHI DECOCTION
23443675	494	511	Gui Zhi decoction	CPM	GUI ZHI DECOCTION
26622408	29	46	Gui Zhi decoction	CPM	GUI ZHI DECOCTION
26622408	651	668	Gui Zhi decoction	CPM	GUI ZHI DECOCTION
27814708	34	58	Chinese herbal decoction	CPM	CHINESE HERBAL DECOCTION
27814708	2130	2143	PSR decoction	CPM	PSR DECOCTION
30641630	45	69	Huatan Tongluo Decoction	CPM	HUATAN TONGLUO DECOCTION
30641630	48	69	tan Tongluo Decoction	CPM	TAN TONGLUO DECOCTION
30641630	191	212	tan Tongluo Decoction	CPM	TAN TONGLUO DECOCTION
28925168	18	47	supplemented Zhenwu decoction	CPM	SUPPLEMENTED ZHENWU DECOCTION
28925168	154	183	supplemented Zhenwu decoction	CPM	SUPPLEMENTED ZHENWU DECOCTION
28925168	472	501	supplemented Zhenwu decoction	CPM	SUPPLEMENTED ZHENWU DECOCTION
28925168	991	1020	supplemented Zhenwu decoction	CPM	SUPPLEMENTED ZHENWU DECOCTION
28925168	1677	1706	supplemented Zhenwu decoction	CPM	SUPPLEMENTED ZHENWU DECOCTION
28925168	1322	1351	Supplemented Zhenwu decoction	CPM	SUPPLEMENTED ZHENWU DECOCTION
26976763	177	204	Huang-Lian-Jie-Du Decoction	CPM	HUANG-LIAN-JIE-DU DECOCTION
26657578	90	117	Huang-Lian-Jie-Du Decoction	CPM	HUANG-LIAN-JIE-DU DECOCTION
31772561	33	60	Huang-Lian-Jie-Du Decoction	CPM	HUANG-LIAN-JIE-DU DECOCTION
31772561	72	99	Huang-Lian-Jie-Du Decoction	CPM	HUANG-LIAN-JIE-DU DECOCTION
26852160	125	147	Xiao-Xu-Ming decoction	CPM	XIAO-XU-MING DECOCTION
26852160	153	175	Xiao-Xu-Ming decoction	CPM	XIAO-XU-MING DECOCTION
24189031	0	22	Xiao-Xu-Ming decoction	CPM	XIAO-XU-MING DECOCTION
24189031	192	214	Xiao-Xu-Ming decoction	CPM	XIAO-XU-MING DECOCTION
19800960	137	159	Xiao-Xu-Ming decoction	CPM	XIAO-XU-MING DECOCTION
28875677	12	36	Shaoyao Gancao decoction	CPM	SHAOYAO GANCAO DECOCTION
28875677	157	181	Shaoyao Gancao decoction	CPM	SHAOYAO GANCAO DECOCTION
28875677	446	470	Shaoyao Gancao decoction	CPM	SHAOYAO GANCAO DECOCTION
28875677	896	920	Shaoyao Gancao decoction	CPM	SHAOYAO GANCAO DECOCTION
28875677	1607	1631	Shaoyao Gancao decoction	CPM	SHAOYAO GANCAO DECOCTION
28875677	2272	2296	Shaoyao Gancao decoction	CPM	SHAOYAO GANCAO DECOCTION
27413737	11	35	Shaoyao-Gancao Decoction	CPM	SHAOYAO-GANCAO DECOCTION
27413737	197	221	Shaoyao-Gancao decoction	CPM	SHAOYAO-GANCAO DECOCTION
26549268	1523	1564	Ban-Xia-Xie-Xin-Tang (Pinelliae Decoction	CPM	BAN-XIA-XIE-XIN-TANG (PINELLIAE DECOCTION
26239152	236	257	Xuefu Zhuyu decoction	CPM	XUEFU ZHUYU DECOCTION
26239152	265	289	Tianma Gouteng decoction	CPM	TIANMA GOUTENG DECOCTION
26239152	300	317	Shengyu decoction	CPM	SHENGYU DECOCTION
25937634	65	91	huanglian-jie-du decoction	CPM	HUANGLIAN-JIE-DU DECOCTION
25937634	173	199	Huanglian-jie-du decoction	CPM	HUANGLIAN-JIE-DU DECOCTION
25925312	55	71	Di-Tan decoction	CPM	DI-TAN DECOCTION
25847568	0	17	Wen Dan Decoction	CPM	WEN DAN DECOCTION
25847568	243	260	Wen Dan Decoction	CPM	WEN DAN DECOCTION
25710597	41	66	Gua-Lou-Gui-Zhi decoction	CPM	GUA-LOU-GUI-ZHI DECOCTION
25710597	234	259	Gua-Lou-Gui-Zhi decoction	CPM	GUA-LOU-GUI-ZHI DECOCTION
25886469	0	23	Buyang huanwu decoction	CPM	BUYANG HUANWU DECOCTION
25126100	0	23	Buyang huanwu decoction	CPM	BUYANG HUANWU DECOCTION
26248428	12	26	Jiji decoction	CPM	JIJI DECOCTION
26248428	187	201	Jiji decoction	CPM	JIJI DECOCTION
26248428	592	606	Jiji decoction	CPM	JIJI DECOCTION
26248428	666	680	Jiji decoction	CPM	JIJI DECOCTION
26248428	1075	1089	Jiji decoction	CPM	JIJI DECOCTION
26248428	1358	1372	Jiji decoction	CPM	JIJI DECOCTION
26248428	1577	1591	Jiji decoction	CPM	JIJI DECOCTION
26248428	1894	1908	Jiji decoction	CPM	JIJI DECOCTION
26248428	1975	1989	Jiji decoction	CPM	JIJI DECOCTION
25714979	944	962	defatted decoction	CPM	DEFATTED DECOCTION
25714979	1502	1520	defatted decoction	CPM	DEFATTED DECOCTION
25149059	41	56	si wu decoction	CPM	SI WU DECOCTION
25149059	201	216	Si Wu decoction	CPM	SI WU DECOCTION
25262476	230	250	Zao (GMDZ) decoction	CPM	ZAO (GMDZ) DECOCTION
25262476	464	478	GMDZ decoction	CPM	GMDZ DECOCTION
25262476	535	549	GMDZ decoction	CPM	GMDZ DECOCTION
25262476	562	576	GMDZ decoction	CPM	GMDZ DECOCTION
25262476	903	917	GMDZ decoction	CPM	GMDZ DECOCTION
25262476	1008	1022	GMDZ decoction	CPM	GMDZ DECOCTION
25262476	1254	1268	GMDZ decoction	CPM	GMDZ DECOCTION
25262476	1421	1435	GMDZ decoction	CPM	GMDZ DECOCTION
25262476	1521	1535	GMDZ decoction	CPM	GMDZ DECOCTION
25262476	1825	1839	GMDZ decoction	CPM	GMDZ DECOCTION
25262476	553	576	modified GMDZ decoction	CPM	MODIFIED GMDZ DECOCTION
25262476	1249	1268	that GMDZ decoction	CPM	THAT GMDZ DECOCTION
25262476	1514	1535	tested GMDZ decoction	CPM	TESTED GMDZ DECOCTION
25850276	0	26	[Huanglian jiedu decoction	CPM	[HUANGLIAN JIEDU DECOCTION
25850276	177	202	Huanglian Jiedu decoction	CPM	HUANGLIAN JIEDU DECOCTION
25850276	1477	1502	Huanglian Jiedu decoction	CPM	HUANGLIAN JIEDU DECOCTION
25850276	1875	1900	Huanglian Jiedu decoction	CPM	HUANGLIAN JIEDU DECOCTION
25850276	1992	2017	Huanglian Jiedu decoction	CPM	HUANGLIAN JIEDU DECOCTION
25850276	2116	2141	Huanglian Jiedu decoction	CPM	HUANGLIAN JIEDU DECOCTION
25850276	2581	2606	Huanglian Jiedu decoction	CPM	HUANGLIAN JIEDU DECOCTION
25335330	231	255	Yishen Jiejing Decoction	CPM	YISHEN JIEJING DECOCTION
24372105	26	49	buyang huanwu decoction	CPM	BUYANG HUANWU DECOCTION
11477812	19	42	buyang huanwu decoction	CPM	BUYANG HUANWU DECOCTION
23861695	41	64	buyang huanwu decoction	CPM	BUYANG HUANWU DECOCTION
24783923	574	596	oral Chinese decoction	CPM	ORAL CHINESE DECOCTION
24783923	814	836	oral Chinese decoction	CPM	ORAL CHINESE DECOCTION
25039192	36	59	gualou guizhi decoction	CPM	GUALOU GUIZHI DECOCTION
24127065	0	23	GuaLou GuiZhi decoction	CPM	GUALOU GUIZHI DECOCTION
24127065	506	529	GuaLou GuiZhi decoction	CPM	GUALOU GUIZHI DECOCTION
23702039	0	25	Ginseng-Aconite Decoction	CPM	GINSENG-ACONITE DECOCTION
23702039	159	184	Ginseng-Aconite Decoction	CPM	GINSENG-ACONITE DECOCTION
24417149	24	43	tong guan decoction	CPM	TONG GUAN DECOCTION
24417149	163	182	Tong Guan Decoction	CPM	TONG GUAN DECOCTION
24199581	53	79	blood-activating decoction	CPM	BLOOD-ACTIVATING DECOCTION
24199581	743	769	blood-activating decoction	CPM	BLOOD-ACTIVATING DECOCTION
24199581	1348	1374	blood-activating decoction	CPM	BLOOD-ACTIVATING DECOCTION
24199581	212	238	Blood-activating decoction	CPM	BLOOD-ACTIVATING DECOCTION
22574583	625	641	QSDCMM decoction	CPM	QSDCMM DECOCTION
21784143	46	71	Bu-yang Huan-wu decoction	CPM	BU-YANG HUAN-WU DECOCTION
21784143	184	209	Bu-yang Huan-wu decoction	CPM	BU-YANG HUAN-WU DECOCTION
21315142	30	53	Xue-Fu-Zhu-Yu decoction	CPM	XUE-FU-ZHU-YU DECOCTION
21315142	158	181	Xue-Fu-Zhu-Yu decoction	CPM	XUE-FU-ZHU-YU DECOCTION
20093170	324	339	HLJDT decoction	CPM	HLJDT DECOCTION
20093170	497	512	HLJDT decoction	CPM	HLJDT DECOCTION
20093170	583	598	HLJDT decoction	CPM	HLJDT DECOCTION
20093170	1118	1133	HLJDT decoction	CPM	HLJDT DECOCTION
20093170	1178	1193	HLJDT decoction	CPM	HLJDT DECOCTION
20093170	1505	1520	HLJDT decoction	CPM	HLJDT DECOCTION
19800960	27	49	xiao-xu-ming decoction	CPM	XIAO-XU-MING DECOCTION
17633364	722	745	Danggui Buxue Decoction	CPM	DANGGUI BUXUE DECOCTION
17432684	609	633	Zhengan Xifeng Decoction	CPM	ZHENGAN XIFENG DECOCTION
17432684	654	679	Xinglou Chengqi Decoction	CPM	XINGLOU CHENGQI DECOCTION
16503526	12	34	Buyanghuanwu decoction	CPM	BUYANGHUANWU DECOCTION
16503526	137	159	Buyanghuanwu decoction	CPM	BUYANGHUANWU DECOCTION
15366591	159	183	Huoxue Tongluo Decoction	CPM	HUOXUE TONGLUO DECOCTION
15339439	14	36	Jieyu Huoxue Decoction	CPM	JIEYU HUOXUE DECOCTION
15339439	148	170	Jieyu Huoxue Decoction	CPM	JIEYU HUOXUE DECOCTION
15339439	430	452	Jieyu Huoxue Decoction	CPM	JIEYU HUOXUE DECOCTION
15339439	860	882	Jieyu Huoxue Decoction	CPM	JIEYU HUOXUE DECOCTION
15339439	1301	1323	Jieyu Huoxue Decoction	CPM	JIEYU HUOXUE DECOCTION
15339439	1347	1369	Jieyu Huoxue Decoction	CPM	JIEYU HUOXUE DECOCTION
15339439	1440	1462	Jieyu Huoxue Decoction	CPM	JIEYU HUOXUE DECOCTION
8850132	800	824	C. articulatus decoction	CPM	C. ARTICULATUS DECOCTION
8850132	889	913	A. grandifolia decoction	CPM	A. GRANDIFOLIA DECOCTION
29075304	11	34	Gualou Guizhi Decoction	CPM	GUALOU GUIZHI DECOCTION
31792665	69	92	Gualou Guizhi Decoction	CPM	GUALOU GUIZHI DECOCTION
17359635	24	46	novel herbal decoction	CPM	NOVEL HERBAL DECOCTION
24716184	21	39	sheng yu decoction	CPM	SHENG YU DECOCTION
24716184	151	169	Sheng Yu Decoction	CPM	SHENG YU DECOCTION
29234386	35	59	Xijiao Dihuang Decoction	CPM	XIJIAO DIHUANG DECOCTION
30046341	0	24	Xijiao Dihuang Decoction	CPM	XIJIAO DIHUANG DECOCTION
30046341	241	265	Xijiao Dihuang Decoction	CPM	XIJIAO DIHUANG DECOCTION
29234386	210	234	Dihuang (XJDH) decoction	CPM	DIHUANG (XJDH) DECOCTION
24082627	177	199	Nao-De-Sheng decoction	CPM	NAO-DE-SHENG DECOCTION
24082627	909	926	and NDS decoction	CPM	AND NDS DECOCTION
24082627	1487	1504	and NDS decoction	CPM	AND NDS DECOCTION
30112417	683	700	rhubarb decoction	CPM	RHUBARB DECOCTION
27184188	0	31	Pheretima aspergillum decoction	CPM	PHERETIMA ASPERGILLUM DECOCTION
27184188	674	705	Pheretima aspergillum decoction	CPM	PHERETIMA ASPERGILLUM DECOCTION
31865728	17	44	Tongqiao Huashuan Decoction	CPM	TONGQIAO HUASHUAN DECOCTION
31865728	156	183	Tongqiao Huashuan Decoction	CPM	TONGQIAO HUASHUAN DECOCTION
31865728	433	460	Tongqiao Huashuan Decoction	CPM	TONGQIAO HUASHUAN DECOCTION
31865728	927	954	Tongqiao Huashuan Decoction	CPM	TONGQIAO HUASHUAN DECOCTION
31865728	2343	2370	Tongqiao Huashuan Decoction	CPM	TONGQIAO HUASHUAN DECOCTION
31865728	2595	2622	Tongqiao Huashuan Decoction	CPM	TONGQIAO HUASHUAN DECOCTION
31572528	0	17	Sijunzi decoction	CPM	SIJUNZI DECOCTION
31572528	257	274	Sijunzi decoction	CPM	SIJUNZI DECOCTION
31872640	554	582	Chuanxiong Rhizoma decoction	CPM	CHUANXIONG RHIZOMA DECOCTION
31872640	921	949	Chuanxiong Rhizoma decoction	CPM	CHUANXIONG RHIZOMA DECOCTION
31872640	1239	1267	Chuanxiong Rhizoma decoction	CPM	CHUANXIONG RHIZOMA DECOCTION
29853968	331	349	long-zhi decoction	CPM	LONG-ZHI DECOCTION
17461214	1	10	Choto-san	CPM	CHOTO-SAN
14615873	44	53	Choto-san	CPM	CHOTO-SAN
14615873	217	226	Choto-san	CPM	CHOTO-SAN
14615873	558	567	Choto-san	CPM	CHOTO-SAN
14615873	644	653	Choto-san	CPM	CHOTO-SAN
14615873	1133	1142	Choto-san	CPM	CHOTO-SAN
14615873	1572	1581	Choto-san	CPM	CHOTO-SAN
12895681	52	61	Choto-san	CPM	CHOTO-SAN
12895681	279	288	Choto-san	CPM	CHOTO-SAN
12895681	325	334	Choto-san	CPM	CHOTO-SAN
12895681	585	594	Choto-san	CPM	CHOTO-SAN
12895681	815	824	Choto-san	CPM	CHOTO-SAN
12895681	1308	1317	Choto-san	CPM	CHOTO-SAN
12723757	0	9	Choto-san	CPM	CHOTO-SAN
11995955	11	20	Choto-san	CPM	CHOTO-SAN
11995955	119	128	Choto-san	CPM	CHOTO-SAN
11995955	583	592	Choto-san	CPM	CHOTO-SAN
11995955	826	835	Choto-san	CPM	CHOTO-SAN
11995955	1118	1127	Choto-san	CPM	CHOTO-SAN
11995955	1225	1234	Choto-san	CPM	CHOTO-SAN
11321483	11	20	Choto-san	CPM	CHOTO-SAN
11321483	147	156	Choto-san	CPM	CHOTO-SAN
11321483	356	365	Choto-san	CPM	CHOTO-SAN
11321483	671	680	Choto-san	CPM	CHOTO-SAN
21108840	0	20	Chungsim-Yeunja-Tang	CPM	CHUNGSIM-YEUNJA-TANG
21108840	184	204	Chungsim-Yeunja-Tang	CPM	CHUNGSIM-YEUNJA-TANG
12675197	45	65	Chungsim-Yeunja-Tang	CPM	CHUNGSIM-YEUNJA-TANG
12675197	104	124	Chungsim-Yeunja-Tang	CPM	CHUNGSIM-YEUNJA-TANG
12675197	283	290	CY-Tang	CPM	CY-TANG
12675197	403	410	CY-Tang	CPM	CY-TANG
12675197	857	864	CY-Tang	CPM	CY-TANG
12675197	1006	1013	CY-Tang	CPM	CY-TANG
12675197	1109	1116	CY-Tang	CPM	CY-TANG
12675197	1139	1146	CY-Tang	CPM	CY-TANG
12675197	1223	1230	CY-Tang	CPM	CY-TANG
27854047	19	38	Gueichih-Fuling-Wan	CPM	GUEICHIH-FULING-WAN
27854047	271	290	Gueichih-Fuling-Wan	CPM	GUEICHIH-FULING-WAN
17359635	218	238	Guhpoongchungsimhwan	CPM	GUHPOONGCHUNGSIMHWAN
30028327	0	12	Houshiheisan	CPM	HOUSHIHEISAN
30028327	87	99	Houshiheisan	CPM	HOUSHIHEISAN
30028327	860	872	Houshiheisan	CPM	HOUSHIHEISAN
30028327	1098	1110	Houshiheisan	CPM	HOUSHIHEISAN
30028327	1348	1360	Houshiheisan	CPM	HOUSHIHEISAN
30028327	1534	1546	Houshiheisan	CPM	HOUSHIHEISAN
30028327	1726	1738	Houshiheisan	CPM	HOUSHIHEISAN
30028327	2221	2233	Houshiheisan	CPM	HOUSHIHEISAN
30028327	2327	2339	Houshiheisan	CPM	HOUSHIHEISAN
27833029	95	107	Houshiheisan	CPM	HOUSHIHEISAN
27833029	182	194	Houshiheisan	CPM	HOUSHIHEISAN
31652450	0	12	Houshiheisan	CPM	HOUSHIHEISAN
31652450	110	122	Houshiheisan	CPM	HOUSHIHEISAN
30687085	427	447	Hwangryunhaedok-tang	CPM	HWANGRYUNHAEDOK-TANG
12204769	0	22	Hwangryun-Hae-Dok-tang	CPM	HWANGRYUN-HAE-DOK-TANG
12204769	179	201	Hwangryun-Hae-Dok-tang	CPM	HWANGRYUN-HAE-DOK-TANG
17541150	28	40	oyaksungisan	CPM	OYAKSUNGISAN
17541150	730	742	oyaksungisan	CPM	OYAKSUNGISAN
17541150	827	839	oyaksungisan	CPM	OYAKSUNGISAN
17541150	954	966	oyaksungisan	CPM	OYAKSUNGISAN
28664144	66	79	oyaksungi-san	CPM	OYAKSUNGI-SAN
28664144	118	131	oyaksungi-san	CPM	OYAKSUNGI-SAN
12723760	29	46	reduohanxiao-tang	CPM	REDUOHANXIAO-TANG
12723760	179	196	Reduohanxiao-tang	CPM	REDUOHANXIAO-TANG
12723760	348	365	Reduohanxiao-tang	CPM	REDUOHANXIAO-TANG
12723760	558	575	Reduohanxiao-tang	CPM	REDUOHANXIAO-TANG
12723760	703	720	Reduohanxiao-tang	CPM	REDUOHANXIAO-TANG
23088414	34	46	Saskatchewan	CPM	SASKATCHEWAN
23088414	109	121	Saskatchewan	CPM	SASKATCHEWAN
23088414	827	839	Saskatchewan	CPM	SASKATCHEWAN
23088414	1024	1036	Saskatchewan	CPM	SASKATCHEWAN
23088414	1234	1246	Saskatchewan	CPM	SASKATCHEWAN
23088414	2002	2014	Saskatchewan	CPM	SASKATCHEWAN
23088414	2050	2062	Saskatchewan	CPM	SASKATCHEWAN
23088414	2255	2267	Saskatchewan	CPM	SASKATCHEWAN
23088414	2760	2772	Saskatchewan	CPM	SASKATCHEWAN
20031832	444	456	Saskatchewan	CPM	SASKATCHEWAN
10983738	1187	1199	Saskatchewan	CPM	SASKATCHEWAN
12095423	40	52	Saskatchewan	CPM	SASKATCHEWAN
12095423	235	247	Saskatchewan	CPM	SASKATCHEWAN
16907982	501	513	Saskatchewan	CPM	SASKATCHEWAN
18447213	664	672	Shentang	CPM	SHENTANG
30235703	16	40	Sihogayonggolmoryeo-tang	CPM	SIHOGAYONGGOLMORYEO-TANG
30235703	315	339	Sihogayonggolmoryeo-tang	CPM	SIHOGAYONGGOLMORYEO-TANG
31601868	23	47	Sihogayonggolmoryeo-tang	CPM	SIHOGAYONGGOLMORYEO-TANG
31601868	257	281	Sihogayonggolmoryeo-tang	CPM	SIHOGAYONGGOLMORYEO-TANG
17359639	499	509	Sopungtang	CPM	SOPUNGTANG
31885791	457	467	Tongxuewan	CPM	TONGXUEWAN
31885791	1192	1202	Tongxuewan	CPM	TONGXUEWAN
14992552	69	87	Chungpyesagan-tang	CPM	CHUNGPYESAGAN-TANG
12856857	80	98	Chungpyesagan-tang	CPM	CHUNGPYESAGAN-TANG
12856857	34	52	chungpyesagan-tang	CPM	CHUNGPYESAGAN-TANG
12856857	290	308	chungpyesagan-tang	CPM	CHUNGPYESAGAN-TANG
12856857	435	453	chungpyesagan-tang	CPM	CHUNGPYESAGAN-TANG
12856857	1149	1167	chungpyesagan-tang	CPM	CHUNGPYESAGAN-TANG
17365133	21	41	Yangkyuk-Sanhwa-Tang	CPM	YANGKYUK-SANHWA-TANG
17365133	155	175	Yangkyuk-Sanhwa-Tang	CPM	YANGKYUK-SANHWA-TANG
12616992	0	20	Yangkyuk-Sanhwa-Tang	CPM	YANGKYUK-SANHWA-TANG
12616992	103	123	Yangkyuk-Sanhwa-Tang	CPM	YANGKYUK-SANHWA-TANG
30846938	167	191	(Dengzhanhua) injection 	CPM	DENGZHANHUAINJECTION
31519277	187	202	(DZSM) capsule 	CPM	(DZSM)CAPSULE
28917378	241	258	(DZXX) injection 	CPM	DENGZHANXIXININJECTION
28796050	200	217	(DZXX) injection 	CPM	DENGZHANXIXININJECTION
16161429	28	46	(Gadol) injection 	CPM	(GADOL)INJECTION
16161429	161	179	(Gadol) injection 	CPM	(GADOL)INJECTION
26242125	229	242	(GMT) Tablet 	CPM	(GMT)TABLET
11367650	136	150	(HCD) capsule 	CPM	(HCD)CAPSULE
25282898	212	228	(KDZ) injection 	CPM	KUDIEZIINJECTION
22013790	470	489	Kudiezi Injection 	CPM	KUDIEZIINJECTION
26299391	161	177	(LPS) injection 	CPM	(LPS)INJECTION
29353229	167	183	(LPS) injection 	CPM	(LPS)INJECTION
24818251	397	413	(PNS) injection 	CPM	(PNS)INJECTION
22675376	144	160	(QKL) injection 	CPM	(QKL)INJECTION
24783921	182	198	(QKL) injection 	CPM	(QKL)INJECTION
31565154	495	509	(SLT) capsule 	CPM	(SLT)CAPSULE
29517675	199	214	(SM) injection 	CPM	(SM)INJECTION
28743390	193	209	(STZ) injection 	CPM	(STZ)INJECTION
23472157	249	266	(TLJN) injection 	CPM	(TLJN)INJECTION
19428685	429	451	(TNF)-alpha injection 	CPM	(TNF)-ALPHAINJECTION
10436119	317	333	(USP) injection 	CPM	(USP)INJECTION
11711502	114	131	(WKY), injection 	CPM	(WKY),INJECTION
23789225	163	179	(XBJ) injection 	CPM	(XBJ)INJECTION
29103461	643	657	(YCW) capsule 	CPM	(YCW)CAPSULE
29435096	160	174	(YQFM) powder 	CPM	YIQIFUMAIPOWDER
27087890	139	153	(YQFM) powder 	CPM	YIQIFUMAIPOWDER
15810603	186	201	(ZYTM) Capsule 	CPM	ZHUYUTONGMAICAPSULE
23285918	0	25	Dengzhanxixin injection 	CPM	DENGZHANXIXININJECTION
25046948	0	16	Wuling capsule 	CPM	WULINGCAPSULE
25575067	0	17	Xinfeng Capsule 	CPM	XINFENGCAPSULE
15074085	35	54	Angelica injection 	CPM	ANGELICAINJECTION
15074085	140	159	Angelica Injection 	CPM	ANGELICAINJECTION
29944037	32	46	Baige capsule 	CPM	BAIGECAPSULE
24122939	49	63	Baige capsule 	CPM	BAIGECAPSULE
31231259	30	48	Bailemian Capsule 	CPM	BAILEMIANCAPSULE
31231259	300	318	Bailemian capsule 	CPM	BAILEMIANCAPSULE
24494572	23	37	Baimai powder 	CPM	BAIMAIPOWDER
24494572	337	351	Baimai powder 	CPM	BAIMAIPOWDER
23606560	88	109	batimastat injection 	CPM	BATIMASTATINJECTION
7647529	29	43	beetle powder 	CPM	BEETLEPOWDER
29405046	45	67	bevacizumab injection 	CPM	BEVACIZUMABINJECTION
3039095	41	63	bicarbonate injection 	CPM	BICARBONATEINJECTION
16325156	20	40	bilateral injection 	CPM	BILATERALINJECTION
16325156	235	255	bilateral injection 	CPM	BILATERALINJECTION
30846938	15	38	Breviscapine Injection 	CPM	BREVISCAPINEINJECTION
30846938	369	392	Breviscapine injection 	CPM	BREVISCAPINEINJECTION
30846938	422	445	breviscapine injection 	CPM	BREVISCAPINEINJECTION
30846938	454	477	breviscapine injection 	CPM	BREVISCAPINEINJECTION
30846938	457	480	breviscapine injection 	CPM	BREVISCAPINEINJECTION
30846938	517	540	breviscapine injection 	CPM	BREVISCAPINEINJECTION
29027438	179	202	Breviscapine injection 	CPM	BREVISCAPINEINJECTION
29027438	50	72	breviscapus injection 	CPM	BREVISCAPUSINJECTION
29027438	76	98	Breviscapus injection 	CPM	BREVISCAPUSINJECTION
28917378	213	236	breviscapus) injection 	CPM	BREVISCAPUS)INJECTION
7536309	55	75	capsaicin injection 	CPM	CAPSAICININJECTION
7536309	63	83	capsaicin injection 	CPM	CAPSAICININJECTION
2223262	6	24	carotid injection 	CPM	CAROTIDINJECTION
17300035	95	119	catecholamine injection 	CPM	CATECHOLAMINEINJECTION
8827944	17	41	catecholamine injection 	CPM	CATECHOLAMINEINJECTION
17330510	156	173	Chlorella powder 	CPM	CHLORELLAPOWDER
20353105	1170	1189	chloride injection 	CPM	CHLORIDEINJECTION
26159020	942	961	Chuanxiong Capsule 	CPM	CHUANXIONGCAPSULE
31689480	174	193	Chuanxiong capsule 	CPM	CHUANXIONGCAPSULE
31689480	1295	1314	Chuanxiong Capsule 	CPM	CHUANXIONGCAPSULE
31602836	39	63	Chuanxiongqin Injection 	CPM	CHUANXIONGQININJECTION
31602836	94	118	Chuanxiongqin Injection 	CPM	CHUANXIONGQININJECTION
30347928	53	77	Chuanxiongqin Injection 	CPM	CHUANXIONGQININJECTION
30347928	193	217	Chuanxiongqin Injection 	CPM	CHUANXIONGQININJECTION
30347928	380	404	Chuanxiongqin Injection 	CPM	CHUANXIONGQININJECTION
30347928	413	437	Chuanxiongqin Injection 	CPM	CHUANXIONGQININJECTION
30347928	538	562	Chuanxiongqin Injection 	CPM	CHUANXIONGQININJECTION
31602836	39	63	Chuanxiongqin Injection 	CPM	CHUANXIONGQININJECTION
31602836	94	118	Chuanxiongqin Injection 	CPM	CHUANXIONGQININJECTION
29040936	192	218	Dan-Deng-Tong-Nao capsule 	CPM	DAN-DENG-TONG-NAOCAPSULE
30018549	0	18	Danhong Injection 	CPM	DANHONGINJECTION
30018549	564	582	Danhong injection 	CPM	DANHONGINJECTION
30863452	105	123	Danhong Injection 	CPM	DANHONGINJECTION
30863452	449	467	Danhong injection 	CPM	DANHONGINJECTION
30408571	0	18	Danhong injection 	CPM	DANHONGINJECTION
30408571	281	299	Danhong injection 	CPM	DANHONGINJECTION
30031913	0	18	Danhong injection 	CPM	DANHONGINJECTION
30031913	35	53	Danhong injection 	CPM	DANHONGINJECTION
28986333	21	39	Danhong Injection 	CPM	DANHONGINJECTION
28986333	153	171	Danhong Injection 	CPM	DANHONGINJECTION
28986333	172	190	Danhong Injection 	CPM	DANHONGINJECTION
29133791	140	158	Danhong injection 	CPM	DANHONGINJECTION
28672812	3	21	Danhong Injection 	CPM	DANHONGINJECTION
28672812	108	126	Danhong injection 	CPM	DANHONGINJECTION
28562578	23	41	Danhong injection 	CPM	DANHONGINJECTION
28562578	164	182	Danhong injection 	CPM	DANHONGINJECTION
28562578	235	253	Danhong injection 	CPM	DANHONGINJECTION
27431009	106	124	Danhong injection 	CPM	DANHONGINJECTION
27107944	0	18	Danhong injection 	CPM	DANHONGINJECTION
27107944	372	390	Danhong injection 	CPM	DANHONGINJECTION
26681040	11	29	Danhong injection 	CPM	DANHONGINJECTION
26681040	207	225	Danhong injection 	CPM	DANHONGINJECTION
26681040	584	602	Danhong injection 	CPM	DANHONGINJECTION
26654631	26	44	Danhong injection 	CPM	DANHONGINJECTION
26654631	154	172	Danhong injection 	CPM	DANHONGINJECTION
25937632	0	18	DanHong injection 	CPM	DANHONGINJECTION
25937632	324	342	DanHong injection 	CPM	DANHONGINJECTION
25670806	90	108	DanHong injection 	CPM	DANHONGINJECTION
25670806	124	142	DanHong injection 	CPM	DANHONGINJECTION
25532388	1239	1257	Danhong injection 	CPM	DANHONGINJECTION
23921303	40	58	danhong injection 	CPM	DANHONGINJECTION
23921303	76	94	Danhong injection 	CPM	DANHONGINJECTION
29681849	0	18	Danhong Injection 	CPM	DANHONGINJECTION
29681849	309	327	Danhong injection 	CPM	DANHONGINJECTION
29681849	328	346	Danhong injection 	CPM	DANHONGINJECTION
29681849	573	591	Danhong injection 	CPM	DANHONGINJECTION
29681849	635	653	Danhong injection 	CPM	DANHONGINJECTION
31282440	0	18	Danhong injection 	CPM	DANHONGINJECTION
31282440	122	140	Danhong injection 	CPM	DANHONGINJECTION
27547231	37	55	Danhong Injection 	CPM	DANHONGINJECTION
27547231	170	188	Danhong injection 	CPM	DANHONGINJECTION
25317157	18	36	Danhong injection 	CPM	DANHONGINJECTION
25317157	92	110	Danhong injection 	CPM	DANHONGINJECTION
24660600	23	44	Danqipiantan capsule 	CPM	DANQIPIANTANCAPSULE
24660600	140	161	Danqipiantan capsule 	CPM	DANQIPIANTANCAPSULE
17048615	23	43	Denghuang injection 	CPM	DENGHUANGINJECTION
17048615	126	146	Denghuang injection 	CPM	DENGHUANGINJECTION
17048615	185	205	Denghuang injection 	CPM	DENGHUANGINJECTION
17048615	234	254	Denghuang injection 	CPM	DENGHUANGINJECTION
17048615	471	491	Denghuang injection 	CPM	DENGHUANGINJECTION
17048615	836	856	Denghuang injection 	CPM	DENGHUANGINJECTION
25532388	1184	1207	Dengzanxixin injection 	CPM	DENGZANXIXININJECTION
25470975	51	73	Dengzhanhua injection 	CPM	DENGZHANHUAINJECTION
25470975	176	198	Dengzhanhua injection 	CPM	DENGZHANHUAINJECTION
25470975	313	335	Dengzhanhua injection 	CPM	DENGZHANHUAINJECTION
25470975	626	648	Dengzhanhua injection 	CPM	DENGZHANHUAINJECTION
12575301	29	51	dengzhanhua injection 	CPM	DENGZHANHUAINJECTION
12575301	159	181	dengzhanhua injection 	CPM	DENGZHANHUAINJECTION
12575301	227	249	dengzhanhua injection 	CPM	DENGZHANHUAINJECTION
12575301	1034	1056	Dengzhanhua injection 	CPM	DENGZHANHUAINJECTION
28796050	0	24	Dengzhanxixin injection 	CPM	DENGZHANXIXININJECTION
25842735	95	119	Dengzhanxixin injection 	CPM	DENGZHANXIXININJECTION
23285944	60	84	Dengzhanxixin injection 	CPM	DENGZHANXIXININJECTION
23285944	86	110	Dengzhanxixin injection 	CPM	DENGZHANXIXININJECTION
23285918	1	25	Dengzhanxixin injection 	CPM	DENGZHANXIXININJECTION
23285918	135	159	Dengzhanxixin injection 	CPM	DENGZHANXIXININJECTION
25842735	41	66	deng-zhanxixin injection 	CPM	DENG-ZHANXIXININJECTION
31348992	92	119	Deng-Zhan-Xi-Xin injection 	CPM	DENG-ZHAN-XI-XININJECTION
31348992	974	1001	Deng-Zhan-Xi-Xin injection 	CPM	DENG-ZHAN-XI-XININJECTION
28933125	189	210	Diemailing injection 	CPM	DIEMAILINGINJECTION
28933125	1839	1860	Diemailing injection 	CPM	DIEMAILINGINJECTION
29458937	962	975	DZSM capsule 	CPM	DZSMCAPSULE
29458937	1278	1291	DZSM capsule 	CPM	DZSMCAPSULE
29458937	1486	1499	DZSM capsule 	CPM	DZSMCAPSULE
29458937	1636	1649	DZSM capsule 	CPM	DZSMCAPSULE
28917378	301	316	DZXX injection 	CPM	DZXXINJECTION
28796050	201	216	DZXX injection 	CPM	DZXXINJECTION
28796050	316	331	DZXX injection 	CPM	DZXXINJECTION
28796050	361	376	DZXX injection 	CPM	DZXXINJECTION
23713245	5	22	earthworm powder 	CPM	EARTHWORMPOWDER
23713245	7	24	earthworm powder 	CPM	EARTHWORMPOWDER
20599833	3	21	embolus injection 	CPM	EMBOLUSINJECTION
22292366	30	49	fleabane injection 	CPM	FLEABANEINJECTION
22292366	32	51	fleabane injection 	CPM	FLEABANEINJECTION
22292366	153	172	fleabane injection 	CPM	FLEABANEINJECTION
22292366	2714	2733	Fleabane injection 	CPM	FLEABANEINJECTION
12575301	239	263	fufangdanshen injection 	CPM	FUFANGDANSHENINJECTION
23596797	12	26	fujian tablet 	CPM	FUJIANTABLET
23596797	171	185	Fujian Tablet 	CPM	FUJIANTABLET
31574841	16	47	Fuyuan Xingnao Decoction 	CPM	FUYUANXINGNAODECOCTION
17569335	13	31	fuzheng injection 	CPM	FUZHENGINJECTION
17569335	153	171	Fuzheng Injection 	CPM	FUZHENGINJECTION
16089142	27	45	fuzheng injection 	CPM	FUZHENGINJECTION
16089142	28	46	fuzheng injection 	CPM	FUZHENGINJECTION
31876755	39	57	Fuzheng injection 	CPM	FUZHENGINJECTION
31876755	190	208	Fuzheng injection 	CPM	FUZHENGINJECTION
10234740	155	169	garlic powder 	CPM	GARLICPOWDER
10483684	24	38	garlic powder 	CPM	GARLICPOWDER
11938824	574	592	Ginaton injection 	CPM	GINATONINJECTION
28514718	8	30	ginkgolides injection 	CPM	GINKGOLIDESINJECTION
28514718	124	146	Ginkgolides injection 	CPM	GINKGOLIDESINJECTION
26242125	11	30	Guanmaitong Tablet 	CPM	GUANMAITONGTABLET
29415754	0	19	Guanxinning tablet 	CPM	GUANXINNINGTABLET
29415754	195	214	Guanxinning tablet 	CPM	GUANXINNINGTABLET
29902908	47	64	Guhong injection 	CPM	GUHONGINJECTION
29902908	169	186	Guhong injection 	CPM	GUHONGINJECTION
29902908	371	388	Guhong injection 	CPM	GUHONGINJECTION
29902908	1522	1539	Guhong injection 	CPM	GUHONGINJECTION
29867497	43	60	Guhong Injection 	CPM	GUHONGINJECTION
29867497	168	185	Guhong Injection 	CPM	GUHONGINJECTION
22619255	40	58	hABM-SC injection 	CPM	HABM-SCINJECTION
30315404	70	84	had injection 	CPM	HADINJECTION
24508641	298	315	HA-MNC injection 	CPM	HA-MNCINJECTION
24508641	622	639	HA-MNC injection 	CPM	HA-MNCINJECTION
29085434	61	75	herbal powder 	CPM	HERBALPOWDER
11367650	29	49	huancongdan capsule 	CPM	HUANCONGDANCAPSULE
21573109	0	18	Huangqi injection 	CPM	HUANGQIINJECTION
21573109	142	160	Huangqi injection 	CPM	HUANGQIINJECTION
21573109	297	315	Huangqi injection 	CPM	HUANGQIINJECTION
21573109	390	408	Huangqi injection 	CPM	HUANGQIINJECTION
21573109	537	555	Huangqi injection 	CPM	HUANGQIINJECTION
25095353	31	52	huoluotongnao tablet 	CPM	HUOLUOTONGNAOTABLET
25095353	114	135	Huoluotongnao tablet 	CPM	HUOLUOTONGNAOTABLET
25095353	149	170	Huoluotongnao tablet 	CPM	HUOLUOTONGNAOTABLET
25095353	336	357	Huoluotongnao tablet 	CPM	HUOLUOTONGNAOTABLET
25090686	31	52	huoluotongnao tablet 	CPM	HUOLUOTONGNAOTABLET
25090686	113	134	Huoluotongnao tablet 	CPM	HUOLUOTONGNAOTABLET
25090686	148	169	Huoluotongnao tablet 	CPM	HUOLUOTONGNAOTABLET
25090686	295	316	Huoluotongnao tablet 	CPM	HUOLUOTONGNAOTABLET
25090686	521	542	Huoluotongnao tablet 	CPM	HUOLUOTONGNAOTABLET
19182208	881	904	Hydrodynamic injection 	CPM	HYDRODYNAMICINJECTION
23227544	142	169	Yiqi Tongluo capsule 	CPM	YIQITONGLUOCAPSULE
23227544	783	810	Yiqi Tongluo Jiedu capsule 	CPM	YIQITONGLUOJIEDUCAPSULE
23227544	1256	1283	Yiqi Tongluo Jiedu capsule 	CPM	YIQITONGLUOJIEDUCAPSULE
25206473	99	126	Yiqi Tongluo Jieyu capsule 	CPM	YIQITONGLUOJIEYUCAPSULE
25767497	8	35	Yiqi Tongluo Jieyu capsule 	CPM	YIQITONGLUOJIEYUCAPSULE
14580286	594	607	KA injection 	CPM	KAINJECTION
28167446	46	64	kainate injection 	CPM	KAINATEINJECTION
28167446	124	142	kainate injection 	CPM	KAINATEINJECTION
21507200	163	181	kainate injection 	CPM	KAINATEINJECTION
9863092	23	40	kangke injection 	CPM	KANGKEINJECTION
9863092	138	155	Kangke Injection 	CPM	KANGKEINJECTION
9863092	195	212	Kangke Injection 	CPM	KANGKEINJECTION
26552187	26	47	Kangnaoshuan capsule 	CPM	KANGNAOSHUANCAPSULE
26552187	260	281	Kangnaoshuan capsule 	CPM	KANGNAOSHUANCAPSULE
26552187	626	647	Kangnaoshuan capsule 	CPM	KANGNAOSHUANCAPSULE
26552187	783	804	Kangnaoshuan capsule 	CPM	KANGNAOSHUANCAPSULE
25282898	1112	1126	KDZ injection 	CPM	KDZINJECTION
31602834	44	62	Kudiezi Injection 	CPM	KUDIEZIINJECTION
30989960	100	118	Kudiezi Injection 	CPM	KUDIEZIINJECTION
30989960	219	237	Kudiezi Injection 	CPM	KUDIEZIINJECTION
30989960	322	340	Kudiezi Injection 	CPM	KUDIEZIINJECTION
30989960	353	383	Kudiezi Injection 	CPM	KUDIEZIINJECTION
30989960	648	666	Kudiezi Injection 	CPMM	KUDIEZIINJECTION
30245755	11	29	Kudiezi Injection 	CPM	KUDIEZIINJECTION
30245755	118	136	Kudiezi injection 	CPM	KUDIEZIINJECTION
30245755	293	311	Kudiezi injection 	CPM	KUDIEZIINJECTION
30245755	659	677	Kudiezi injection 	CPM	KUDIEZIINJECTION
30245755	678	696	Kudiezi injection 	CPM	KUDIEZIINJECTION
29329654	130	148	Kudiezi injection 	CPM	KUDIEZIINJECTION
29329654	206	224	Kudiezi injection 	CPM	KUDIEZIINJECTION
29329654	482	500	Kudiezi injection 	CPM	KUDIEZIINJECTION
29329654	1330	1348	Kudiezi injection 	CPM	KUDIEZIINJECTION
29329654	1556	1574	Kudiezi injection 	CPM	KUDIEZIINJECTION
28933125	24	42	Kudiezi injection 	CPM	KUDIEZIINJECTION
25282898	57	75	kudiezi injection 	CPM	KUDIEZIINJECTION
24471344	152	170	Kudiezi Injection 	CPM	KUDIEZIINJECTION
24471344	378	396	Kudiezi injection 	CPM	KUDIEZIINJECTION
24471344	571	589	Kudiezi injection 	CPM	KUDIEZIINJECTION
22292367	33	51	Kudiezi injection 	CPM	KUDIEZIINJECTION
22292367	156	174	Kudiezi injection 	CPM	KUDIEZIINJECTION
22292367	210	228	kudiezi injection 	CPM	KUDIEZIINJECTION
22292367	1412	1430	Kudiezi injection 	CPM	KUDIEZIINJECTION
22292367	1606	1624	Kudiezi injection 	CPM	KUDIEZIINJECTION
22013790	462	480	Kudiezi Injection 	CPM	KUDIEZIINJECTION
29080695	89	107	Kudiezi injection 	CPM	KUDIEZIINJECTION
29080695	121	139	Kudiezi injection 	CPM	KUDIEZIINJECTION
22641427	4	23	ginkgo leaf tablet 	CPM	GINKGOLEAFTABLET
22641427	8	29	ginkgo leaf tablet 	CPM	GINKGOLEAFTABLET
25280062	157	172	LMWH injection 	CPM	LMWHINJECTION
25280062	187	202	LMWH injection 	CPM	LMWHINJECTION
29729639	107	130	Longxuetongluo Capsule 	CPM	LONGXUETONGLUOCAPSULE
29729639	237	260	Longxuetongluo Capsule 	CPM	LONGXUETONGLUOCAPSULE
29933680	11	34	Longxuetongluo capsule 	CPM	LONGXUETONGLUOCAPSULE
29933680	387	410	Longxuetongluo capsule 	CPM	LONGXUETONGLUOCAPSULE
28743077	70	93	Longxuetongluo Capsule 	CPM	LONGXUETONGLUOCAPSULE
28743077	116	139	Longxuetongluo Capsule 	CPM	LONGXUETONGLUOCAPSULE
27591127	0	23	Longxuetongluo capsule 	CPM	LONGXUETONGLUOCAPSULE
25204154	22	43	mailuoning injection 	CPM	MAILUONINGINJECTION
25204154	158	179	Mailuoning injection 	CPM	MAILUONINGINJECTION
25204154	243	264	Mailuoning injection 	CPM	MAILUONINGINJECTION
25204154	414	435	Mailuoning injection 	CPM	MAILUONINGINJECTION
23477161	13	32	Maixuekang capsule 	CPM	MAIXUEKANGCAPSULE
23477161	162	181	Maixuekang capsule 	CPM	MAIXUEKANGCAPSULE
23477161	579	598	Maixuekang capsule 	CPM	MAIXUEKANGCAPSULE
23477161	1065	1084	Maixuekang capsule 	CPM	MAIXUEKANGCAPSULE
16053756	18	33	Nao'an Capsule 	CPM	NAO'ANCAPSULE
16053756	1573	1588	Nao'an Capsule 	CPM	NAO'ANCAPSULE
16053756	1667	1682	Nao'an Capsule 	CPM	NAO'ANCAPSULE
16053756	1816	1831	Nao'an Capsule 	CPM	NAO'ANCAPSULE
20091603	1749	1764	Nao-an capsule 	CPM	NAO-ANCAPSULE
20091603	1833	1848	Nao-an capsule 	CPM	NAO-ANCAPSULE
20091603	2397	2412	Nao-an capsule 	CPM	NAO-ANCAPSULE
31680944	23	44	NaoShuanTong Capsule 	CPM	NAOSHUANTONGCAPSULE
31680944	199	220	NaoShuanTong capsule 	CPM	NAOSHUANTONGCAPSULE
31610480	81	102	Naoshuantong capsule 	CPM	NAOSHUANTONGCAPSULE
31610480	232	253	Naoshuantong capsule 	CPM	NAOSHUANTONGCAPSULE
27071273	11	32	Naoshuantong capsule 	CPM	NAOSHUANTONGCAPSULE
27071273	142	163	Naoshuantong capsule 	CPM	NAOSHUANTONGCAPSULE
27071273	557	578	Naoshuantong capsule 	CPM	NAOSHUANTONGCAPSULE
27071273	1217	1238	Naoshuantong capsule 	CPM	NAOSHUANTONGCAPSULE
27071273	1426	1447	Naoshuantong capsule 	CPM	NAOSHUANTONGCAPSULE
22013790	962	983	Naoshuantong Capsule 	CPM	NAOSHUANTONGCAPSULE
22013790	2135	2156	Naoshuantong Capsule 	CPM	NAOSHUANTONGCAPSULE
26019500	59	80	NaoShuanTong capsule 	CPM	NAOSHUANTONGCAPSULE
26019500	165	186	NaoShuanTong capsule 	CPM	NAOSHUANTONGCAPSULE
26919833	26	45	Naoxintong Capsule 	CPM	NAOXINTONGCAPSULE
26919833	275	294	Naoxintong Capsule 	CPM	NAOXINTONGCAPSULE
30660824	83	102	NaoXinTong Capsule 	CPM	NAOXINTONGCAPSULE
30863452	127	146	Naoxintong Capsule 	CPM	NAOXINTONGCAPSULE
30863452	477	496	Naoxintong capsule 	CPM	NAOXINTONGCAPSULE
29933662	111	130	Naoxintong capsule 	CPM	NAOXINTONGCAPSULE
28986333	53	72	Naoxintong Capsule 	CPM	NAOXINTONGCAPSULE
28986333	181	200	Naoxintong Capsule 	CPM	NAOXINTONGCAPSULE
28986333	2156	2175	Naoxintong Capsule 	CPM	NAOXINTONGCAPSULE
28914030	147	166	Naoxintong capsule 	CPM	NAOXINTONGCAPSULE
28914030	690	709	Naoxintong capsule 	CPM	NAOXINTONGCAPSULE
28914030	1855	1874	Naoxintong capsule 	CPM	NAOXINTONGCAPSULE
25566620	491	510	Naoxintong Capsule 	CPM	NAOXINTONGCAPSULE
22779193	19	38	naoxintong capsule 	CPM	NAOXINTONGCAPSULE
22779193	150	169	Naoxintong capsule 	CPM	NAOXINTONGCAPSULE
22779193	910	929	Naoxintong capsule 	CPM	NAOXINTONGCAPSULE
29335863	1138	1157	Naoxintong Capsule 	CPM	NAOXINTONGCAPSULE
31471773	1662	1681	Naoxintong capsule 	CPM	NAOXINTONGCAPSULE
27123036	91	110	Naoxintong Capsule 	CPM	NAOXINTONGCAPSULE
27123036	191	210	Naoxintong capsule 	CPM	NAOXINTONGCAPSULE
30140296	14	33	Naoxintong Capsule 	CPM	NAOXINTONGCAPSULE
30140296	187	206	Naoxintong capsule 	CPM	NAOXINTONGCAPSULE
24405845	124	141	needle injection 	CPM	NEEDLEINJECTION
27085588	585	617	NeuN-double-staining. Injection 	CPM	NEUN-DOUBLE-STAINING.INJECTION
24335403	10	30	neuraxial injection 	CPM	NEURAXIALINJECTION
29843882	29	43	ng) injection 	CPM	NG)INJECTION
20727165	164	178	NGF injection 	CPM	NGFINJECTION
12575607	156	179	nitrolingual injection 	CPM	NITROLINGUALINJECTION
20819633	25	38	no injection 	CPM	NOINJECTION
28726023	22	45	Non-Approved Injection 	CPM	NON-APPROVEDINJECTION
28726023	24	47	non-approved injection 	CPM	NON-APPROVEDINJECTION
26690139	1	17	novel injection 	CPM	NOVELINJECTION
22832603	573	587	NPC injection 	CPM	NPCINJECTION
28265860	0	16	NRG1β injection 	CPM	NRG1ΒINJECTION
28265860	125	141	NRG1β injection 	CPM	NRG1ΒINJECTION
29979410	32	48	nuanxin capsule 	CPM	NUANXINCAPSULE
29979410	319	335	Nuanxin capsule 	CPM	NUANXINCAPSULE
31720730	33	57	Peiyuan Tongnao capsule 	CPM	PEIYUANTONGNAOCAPSULE
31720730	206	230	Peiyuan Tongnao capsule 	CPM	PEIYUANTONGNAOCAPSULE
15205161	64	87	percutaneous injection 	CPM	PERCUTANEOUSINJECTION
21254790	2	23	perispinal injection 	CPM	PERISPINALINJECTION
15852490	82	103	peritoneal injection 	CPM	PERITONEALINJECTION
23311747	6	26	phosphate injection 	CPM	PHOSPHATEINJECTION
26983210	61	77	Piantan capsule 	CPM	PIANTANCAPSULE
26983210	142	158	Piantan capsule 	CPM	PIANTANCAPSULE
26983210	518	534	Piantan capsule 	CPM	PIANTANCAPSULE
26983210	584	600	Piantan capsule 	CPM	PIANTANCAPSULE
26983210	674	690	Piantan capsule 	CPM	PIANTANCAPSULE
26983210	2102	2118	Piantan capsule 	CPM	PIANTANCAPSULE
24673068	495	511	Piantan capsule 	CPM	PIANTANCAPSULE
18841783	12	27	pingyu capsule 	CPM	PINGYUCAPSULE
18841783	136	151	Pingyu capsule 	CPM	PINGYUCAPSULE
18841783	386	401	Pingyu capsule 	CPM	PINGYUCAPSULE
18841783	1067	1082	Pingyu capsule 	CPM	PINGYUCAPSULE
18841783	1158	1173	Pingyu capsule 	CPM	PINGYUCAPSULE
24783921	0	22	Qingkailing injection 	CPM	QINGKAILINGINJECTION
24783921	183	197	QKL injection 	CPM	QKLINJECTION
23001461	22	42	Qushuanling Capsule 	CPM	QUSHUANLINGCAPSULE
23001461	142	162	Qushuanling Capsule 	CPM	QUSHUANLINGCAPSULE
25294055	314	333	SaiLuoTong capsule 	CPM	SAILUOTONGCAPSULE
23270238	11	30	sailuotong capsule 	CPM	SAILUOTONGCAPSULE
23270238	137	156	Sailuotong capsule 	CPM	SAILUOTONGCAPSULE
23270238	1634	1653	Sailuotong capsule 	CPM	SAILUOTONGCAPSULE
22993850	11	30	sailuotong capsule 	CPM	SAILUOTONGCAPSULE
22993850	253	272	Sailuotong capsule 	CPM	SAILUOTONGCAPSULE
31565154	0	19	Sailuotong Capsule 	CPM	SAILUOTONGCAPSULE
21094030	418	440	sanchitongshu capsule 	CPM	SANCHITONGSHUCAPSULE
21094030	854	876	sanchitongshu capsule 	CPM	SANCHITONGSHUCAPSULE
21094030	983	1005	sanchitongshu capsule 	CPM	SANCHITONGSHUCAPSULE
21540055	1331	1351	selective injection 	CPM	SELECTIVEINJECTION
29910216	22	39	Shenfu Injection 	CPM	SHENFUINJECTION
29910216	107	124	Shenfu injection 	CPM	SHENFUINJECTION
27771457	45	62	Shenfu injection 	CPM	SHENFUINJECTION
27771457	101	118	Shenfu injection 	CPM	SHENFUINJECTION
25994188	23	40	Shenfu injection 	CPM	SHENFUINJECTION
25994188	362	379	Shenfu injection 	CPM	SHENFUINJECTION
25994188	733	750	Shenfu injection 	CPM	SHENFUINJECTION
25994188	843	860	Shenfu injection 	CPM	SHENFUINJECTION
25994188	1000	1017	Shenfu injection 	CPM	SHENFUINJECTION
19526754	14	31	shenfu injection 	CPM	SHENFUINJECTION
19526754	194	211	Shenfu Injection 	CPM	SHENFUINJECTION
29458937	33	50	Shengmai capsule 	CPM	SHENGMAICAPSULE
30682539	73	90	Shengmai Capsule 	CPM	SHENGMAICAPSULE
30682539	236	253	Shengmai Capsule 	CPM	SHENGMAICAPSULE
27459888	52	69	Shengmai capsule 	CPM	SHENGMAICAPSULE
27459888	162	179	Shengmai capsule 	CPM	SHENGMAICAPSULE
22965699	1212	1229	Shengmai Capsule 	CPM	SHENGMAICAPSULE
22292366	64	81	Shengmai capsule 	CPM	SHENGMAICAPSULE
22013790	758	775	Shengmai Capsule 	CPM	SHENGMAICAPSULE
19802535	13	30	shengmai capsule 	CPM	SHENGMAICAPSULE
19802535	163	180	Shengmai Capsule 	CPM	SHENGMAICAPSULE
26983890	0	19	Shengmai injection 	CPM	SHENGMAIINJECTION
26983890	141	160	Shengmai injection 	CPM	SHENGMAIINJECTION
25427756	21	40	Shengmai injection 	CPM	SHENGMAIINJECTION
18679601	10	29	Shengmai Injection 	CPM	SHENGMAIINJECTION
18679601	153	172	Shengmai Injection 	CPM	SHENGMAIINJECTION
12584790	11	30	shengmai injection 	CPM	SHENGMAIINJECTION
12584790	125	144	Shengmai Injection 	CPM	SHENGMAIINJECTION
17463317	94	112	Shenmai injection 	CPM	SHENMAIINJECTION
29517675	11	29	Shenmai injection 	CPM	SHENMAIINJECTION
26591368	51	69	Shenmai Injection 	CPM	SHENMAIINJECTION
26591368	130	148	Shenmai Injection 	CPM	SHENMAIINJECTION
23477158	41	59	Shenmai injection 	CPM	SHENMAIINJECTION
23477158	150	168	Shenmai injection 	CPM	SHENMAIINJECTION
23477158	400	418	Shenmai injection 	CPM	SHENMAIINJECTION
23477158	532	550	Shenmai injection 	CPM	SHENMAIINJECTION
23477158	584	602	Shenmai injection 	CPM	SHENMAIINJECTION
23477158	750	768	Shenmai injection 	CPM	SHENMAIINJECTION
11475743	3	21	shenmai injection 	CPM	SHENMAIINJECTION
11475743	152	170	Shenmai Injection 	CPM	SHENMAIINJECTION
31779994	45	63	Shenmai injection 	CPM	SHENMAIINJECTION
22965699	1076	1091	Shenqi Capsule 	CPM	SHENQICAPSULE
16688995	12	31	Shexiang injection 	CPM	SHEXIANGINJECTION
16688995	216	235	Shexiang Injection 	CPM	SHEXIANGINJECTION
18720874	18	34	Shutong capsule 	CPM	SHUTONGCAPSULE
18720874	826	842	Shutong capsule 	CPM	SHUTONGCAPSULE
18720874	1086	1102	Shutong capsule 	CPM	SHUTONGCAPSULE
17348195	30	46	Shutong capsule 	CPM	SHUTONGCAPSULE
17348195	152	168	Shutong capsule 	CPM	SHUTONGCAPSULE
31333457	153	174	Shuxuening injection 	CPM	SHUXUENINGINJECTION
28936832	40	61	Shuxuening injection 	CPM	SHUXUENINGINJECTION
25532388	380	401	Shuxuening injection 	CPM	SHUXUENINGINJECTION
25532384	6	27	shuxuening injection 	CPM	SHUXUENINGINJECTION
25532384	139	160	Shuxuening injection 	CPM	SHUXUENINGINJECTION
25532384	265	286	Shuxuening injection 	CPM	SHUXUENINGINJECTION
25532384	1082	1103	Shuxuening injection 	CPM	SHUXUENINGINJECTION
29681850	35	56	Shuxuening Injection 	CPM	SHUXUENINGINJECTION
29681850	107	128	Shuxuening injection 	CPM	SHUXUENINGINJECTION
25532388	1063	1084	Shuxuetong injection 	CPM	SHUXUETONGINJECTION
23285931	1	22	Shuxuetong injection 	CPM	SHUXUETONGINJECTION
23285931	22	43	Shuxuetong injection 	CPM	SHUXUETONGINJECTION
23285931	135	156	Shuxuetong injection 	CPM	SHUXUETONGINJECTION
23285931	366	387	Shuxuetong injection 	CPM	SHUXUETONGINJECTION
23285931	610	631	Shuxuetong injection 	CPM	SHUXUETONGINJECTION
23285931	949	970	Shuxuetong injection 	CPM	SHUXUETONGINJECTION
23285924	36	57	Shuxuetong injection 	CPM	SHUXUETONGINJECTION
23285924	148	169	Shuxuetong injection 	CPM	SHUXUETONGINJECTION
22256771	11	32	Shuxuetong injection 	CPM	SHUXUETONGINJECTION
22256771	202	223	Shuxuetong injection 	CPM	SHUXUETONGINJECTION
22256771	258	279	Shuxuetong injection 	CPM	SHUXUETONGINJECTION
22256771	451	472	Shuxuetong injection 	CPM	SHUXUETONGINJECTION
30688264	0	21	Shuxuetong injection 	CPM	SHUXUETONGINJECTION
30688264	119	140	Shuxuetong injection 	CPM	SHUXUETONGINJECTION
30688264	355	376	Shuxuetong injection 	CPM	SHUXUETONGINJECTION
30688264	741	762	Shuxuetong injection 	CPM	SHUXUETONGINJECTION
30688264	2072	2093	Shuxuetong injection 	CPM	SHUXUETONGINJECTION
30688264	2873	2894	Shuxuetong injection 	CPM	SHUXUETONGINJECTION
30315856	79	93	STZ injection 	CPM	STZINJECTION
12795227	19	41	Tianbaokang injection 	CPM	TIANBAOKANGINJECTION
12795227	127	149	Tianbaokang Injection 	CPM	TIANBAOKANGINJECTION
24063204	11	28	tongguan capsule 	CPM	TONGGUANCAPSULE
24063204	187	204	Tongguan Capsule 	CPM	TONGGUANCAPSULE
28925134	90	106	Tongluo capsule 	CPM	TONGLUOCAPSULE
28925134	279	295	Tongluo capsule 	CPM	TONGLUOCAPSULE
28925134	709	725	Tongluo capsule 	CPM	TONGLUOCAPSULE
28925134	1788	1804	Tongluo capsule 	CPM	TONGLUOCAPSULE
25532388	1307	1323	Tongshu capsule 	CPM	TONGSHUCAPSULE
19216174	35	51	tongshu capsule 	CPM	TONGSHUCAPSULE
19216174	173	189	Tongshu capsule 	CPM	TONGSHUCAPSULE
19216174	386	402	Tongshu capsule 	CPM	TONGSHUCAPSULE
19216174	1197	1213	Tongshu capsule 	CPM	TONGSHUCAPSULE
30548093	145	164	Tongxinluo capsule 	CPM	TONGXINLUOCAPSULE
29247478	17	36	Tongxinluo capsule 	CPM	TONGXINLUOCAPSULE
27153119	1355	1374	Tongxinluo capsule 	CPM	TONGXINLUOCAPSULE
25632575	28	49	Tongxinluo capsule 	CPM	TONGXINLUOCAPSULE
19527824	153	172	Tongxinluo capsule 	CPM	TONGXINLUOCAPSULE
19527824	829	848	tongxinluo capsule 	CPM	TONGXINLUOCAPSULE
18843664	0	19	Tongxinluo capsule 	CPM	TONGXINLUOCAPSULE
18843664	561	580	tongxinluo capsule 	CPM	TONGXINLUOCAPSULE
18843664	2168	2187	tongxinluo capsule 	CPM	TONGXINLUOCAPSULE
18543480	11	30	tongxinluo capsule 	CPM	TONGXINLUOCAPSULE
18543480	129	148	Tongxinluo Capsule 	CPM	TONGXINLUOCAPSULE
18051910	35	54	Tongxinluo capsule 	CPM	TONGXINLUOCAPSULE
15932703	672	691	Tongxinluo capsule 	CPM	TONGXINLUOCAPSULE
27063986	459	474	Wuling capsule 	CPM	WULINGCAPSULE
24906594	28	43	Wuling capsule 	CPM	WULINGCAPSULE
24906594	145	160	Wuling capsule 	CPM	WULINGCAPSULE
24906594	312	327	Wuling capsule 	CPM	WULINGCAPSULE
24906594	357	372	Wuling capsule 	CPM	WULINGCAPSULE
24906594	729	744	Wuling capsule 	CPM	WULINGCAPSULE
24906594	794	809	Wuling capsule 	CPM	WULINGCAPSULE
24906594	956	971	Wuling capsule 	CPM	WULINGCAPSULE
24906594	1202	1217	Wuling capsule 	CPM	WULINGCAPSULE
24906594	1614	1629	Wuling capsule 	CPM	WULINGCAPSULE
24906594	1762	1777	Wuling capsule 	CPM	WULINGCAPSULE
24906594	2152	2167	Wuling capsule 	CPM	WULINGCAPSULE
25046948	165	180	Wuling Capsule 	CPM	WULINGCAPSULE
18334144	46	61	Wuling Capsule 	CPM	WULINGCAPSULE
18334144	179	194	Wuling Capsule 	CPM	WULINGCAPSULE
18334144	407	422	Wuling Capsule 	CPM	WULINGCAPSULE
18334144	674	689	Wuling Capsule 	CPM	WULINGCAPSULE
18334144	744	759	Wuling Capsule 	CPM	WULINGCAPSULE
18334144	1366	1381	Wuling Capsule 	CPM	WULINGCAPSULE
18334144	1675	1690	Wuling Capsule 	CPM	WULINGCAPSULE
17717928	26	41	Wuling Capsule 	CPM	WULINGCAPSULE
17717928	116	131	Wuling Capsule 	CPM	WULINGCAPSULE
27063986	0	14	Wuling powder 	CPM	WULINGPOWDER
27063986	166	180	Wuling powder 	CPM	WULINGPOWDER
27063986	193	207	Wuling powder 	CPM	WULINGPOWDER
27063986	459	473	Wuling powder 	CPM	WULINGPOWDER
27063986	662	676	Wuling powder 	CPM	WULINGPOWDER
27063986	992	1006	Wuling powder 	CPM	WULINGPOWDER
20353105	1157	1176	Xiangdan injection 	CPM	XIANGDANINJECTION
20091603	2015	2031	Xifenwan tablet 	CPM	XIFENWANTABLET
25575067	1	17	Xinfeng Capsule 	CPM	XINFENGCAPSULE
31611791	51	67	Xingnao Capsule 	CPM	XINGNAOCAPSULE
31611791	119	135	Xingnao Capsule 	CPM	XINGNAOCAPSULE
28912713	41	63	Xingnaojing Injection 	CPM	XINGNAOJINGINJECTION
28912713	116	138	Xingnaojing injection 	CPM	XINGNAOJINGINJECTION
24707306	116	138	Xingnaojing injection 	CPM	XINGNAOJINGINJECTION
29728025	36	58	Xingnaojing injection 	CPM	XINGNAOJINGINJECTION
29728025	177	199	Xingnaojing injection 	CPM	XINGNAOJINGINJECTION
29037226	0	22	Xingnaojing injection 	CPM	XINGNAOJINGINJECTION
28857420	154	176	Xingnaojing Injection 	CPM	XINGNAOJINGINJECTION
26886655	32	54	Xingnaojing Injection 	CPM	XINGNAOJINGINJECTION
25800798	90	112	Xingnaojing Injection 	CPM	XINGNAOJINGINJECTION
25276983	11	33	xingnaojing injection 	CPM	XINGNAOJINGINJECTION
25276983	240	262	Xingnaojing Injection 	CPM	XINGNAOJINGINJECTION
25276983	476	498	Xingnaojing injection 	CPM	XINGNAOJINGINJECTION
25276983	2543	2565	Xingnaojing injection 	CPM	XINGNAOJINGINJECTION
31854225	0	22	XingNaoJing injection 	CPM	XINGNAOJINGINJECTION
31854225	134	156	XingNaoJing injection 	CPM	XINGNAOJINGINJECTION
30158991	0	22	Xingnaojing Injection 	CPM	XINGNAOJINGINJECTION
25881461	641	663	Xingnaojing Injection 	CPM	XINGNAOJINGINJECTION
18051910	39	54	xinluo capsule 	CPM	XINLUOCAPSULE
18051910	161	176	xinluo capsule 	CPM	XINLUOCAPSULE
30420891	22	40	Xinmaining Tablet 	CPM	XINMAININGTABLET
30420891	31	49	Xinmaining Tablet 	CPM	XINMAININGTABLET
26159020	877	892	Xinyue Capsule 	CPM	XINYUECAPSULE
19526752	579	594	Xinyue Capsule 	CPM	XINYUECAPSULE
31689480	354	369	Xinyue capsule 	CPM	XINYUECAPSULE
30347928	559	578	xiongqin injection 	CPM	XIONGQININJECTION
25470975	77	96	Xiongqin injection 	CPM	XIONGQININJECTION
25470975	202	221	Xiongqin injection 	CPM	XIONGQININJECTION
25470975	587	606	Xiongqin injection 	CPM	XIONGQININJECTION
25470975	652	671	Xiongqin injection 	CPM	XIONGQININJECTION
28917378	33	49	Xixin injection 	CPM	XIXININJECTION
25532393	30	46	xixin injection 	CPM	XIXININJECTION
25532393	124	140	Xixin injection 	CPM	XIXININJECTION
22013790	424	440	Xixin Injection 	CPM	XIXININJECTION
26255011	19	39	Xuebijing injection 	CPM	XUEBIJINGINJECTION
26255011	192	212	Xuebijing injection 	CPM	XUEBIJINGINJECTION
26255011	561	581	Xuebijing injection 	CPM	XUEBIJINGINJECTION
25653103	0	20	Xuebijing injection 	CPM	XUEBIJINGINJECTION
25653103	398	418	Xuebijing injection 	CPM	XUEBIJINGINJECTION
23789225	0	20	Xuebijing injection 	CPM	XUEBIJINGINJECTION
23168207	529	549	Xuebijing injection 	CPM	XUEBIJINGINJECTION
23168207	823	843	Xuebijing injection 	CPM	XUEBIJINGINJECTION
23168207	1527	1547	Xuebijing injection 	CPM	XUEBIJINGINJECTION
23168207	1821	1841	Xuebijing injection 	CPM	XUEBIJINGINJECTION
28588676	0	20	Xuebijing injection 	CPM	XUEBIJINGINJECTION
28588676	194	214	Xuebijing injection 	CPM	XUEBIJINGINJECTION
25244772	67	86	Xuesaitong capsule 	CPM	XUESAITONGCAPSULE
25244772	630	649	Xuesaitong capsule 	CPM	XUESAITONGCAPSULE
26305988	11	32	Xuesaitong injection 	CPM	XUESAITONGINJECTION
25888429	0	21	Xuesaitong injection 	CPM	XUESAITONGINJECTION
25888429	128	149	Xuesaitong Injection 	CPM	XUESAITONGINJECTION
20979758	22	43	Xuesaitong injection 	CPM	XUESAITONGINJECTION
25532381	724	747	Xueshuaitong injection 	CPM	XUESHUAITONGINJECTION
25532381	1427	1450	Xueshuaitong injection 	CPM	XUESHUAITONGINJECTION
30326892	56	79	Xueshuantong injection 	CPM	XUESHUANTONGINJECTION
29022576	0	23	Xueshuantong injection 	CPM	XUESHUANTONGINJECTION
29022576	240	263	Xueshuantong injection 	CPM	XUESHUANTONGINJECTION
29633164	0	23	Xueshuantong Injection 	CPM	XUESHUANTONGINJECTION
29633164	125	148	Xueshuantong injection 	CPM	XUESHUANTONGINJECTION
23062408	122	145	Xueshuantong Injection 	CPM	XUESHUANTONGINJECTION
23062408	363	386	Xueshuantong Injection 	CPM	XUESHUANTONGINJECTION
23062408	529	552	Xueshuantong Injection 	CPM	XUESHUANTONGINJECTION
29103461	741	753	YCW capsule 	CPM	YCWCAPSULE
29103461	985	997	YCW capsule 	CPM	YCWCAPSULE
29435096	0	17	YiQiFuMai Powder 	CPM	YIQIFUMAIPOWDER
26834461	0	17	YiQiFuMai powder 	CPM	YIQIFUMAIPOWDER
26834461	145	162	YiQiFuMai powder 	CPM	YIQIFUMAIPOWDER
27087890	0	17	YiQiFuMai Powder 	CPM	YIQIFUMAIPOWDER
28840703	21	38	Zhenyuan capsule 	CPM	ZHENYUANCAPSULE
28840703	129	146	Zhenyuan capsule 	CPM	ZHENYUANCAPSULE
28840703	423	440	Zhenyuan capsule 	CPM	ZHENYUANCAPSULE
28840703	772	789	Zhenyuan capsule 	CPM	ZHENYUANCAPSULE
28840703	1282	1299	Zhenyuan capsule 	CPM	ZHENYUANCAPSULE
15810603	19	40	zhuyutongmai capsule 	CPM	ZHUYUTONGMAICAPSULE
26817897	1420	1430	 Da-Huang 	CPM	DA-HUANG	
21058487	351	361	 Shangwan 	CPM	SHANG-WAN	
27833177	1993	1998	 tie 	CPM	TIE	
10698077	29	34	 Tie 	CPM	TIE	
29354949	153	158	 TIE 	CPM	TIE	
29354949	1659	1664	 TIE 	CPM	TIE	
28868875	811	820	 Xiangfu 	CPM	XIANG-FU	
31207256	81	100	Angong Niuhuang Wan	CPM	AN-GONG-NIU-HUANG-WAN	
31207256	292	311	Angong Niuhuang Wan	CPM	AN-GONG-NIU-HUANG-WAN	
31191319	52	71	Angong Niuhuang Wan	CPM	AN-GONG-NIU-HUANG-WAN	
31191319	123	142	Angong Niuhuang Wan	CPM	AN-GONG-NIU-HUANG-WAN	
24690773	0	21	An-Gong-Niu-Huang Wan	CPM	AN-GONG-NIU-HUANG-WAN	
24690773	185	206	An-Gong-Niu-Huang Wan	CPM	AN-GONG-NIU-HUANG-WAN	
18565447	161	168	antisan	CPM	AN-TI-SAN	
25204193	842	867	Banxia Baizhu Tianma tang	CPM	BAN-XIA-BAI-ZHU-TIAN-MA-TANG	
26969404	1597	1625	Ban-Xia-Bai-Zhu-Tian-Ma-Tang	CPM	BAN-XIA-BAI-ZHU-TIAN-MA-TANG	
26549268	1523	1543	Ban-Xia-Xie-Xin-Tang	CPM	BAN-XIA-XIE-XIN-TANG	
26549268	1689	1709	Ban-Xia-Xie-Xin-Tang	CPM	BAN-XIA-XIE-XIN-TANG	
30573993	15	35	Bu Yang Huan Wu Tang	CPM	BU-YANG-HUAN-WU-TANG	
30573993	169	189	Bu Yang Huan Wu Tang	CPM	BU-YANG-HUAN-WU-TANG	
31517848	0	18	Buyang Huanwu Tang	CPM	BU-YANG-HUAN-WU-TANG	
31517848	159	177	Buyang Huanwu Tang	CPM	BU-YANG-HUAN-WU-TANG	
14719286	25	43	buyang huanwu tang	CPM	BU-YANG-HUAN-WU-TANG	
27090345	1232	1252	Bu-yang-huan-wu-tang	CPM	BU-YANG-HUAN-WU-TANG	
27090345	1886	1906	Bu-yang-huan-wu-tang	CPM	BU-YANG-HUAN-WU-TANG	
27090345	2106	2126	Bu-yang-huan-wu-tang	CPM	BU-YANG-HUAN-WU-TANG	
26477801	948	968	Bu-yang-huan-wu-tang	CPM	BU-YANG-HUAN-WU-TANG	
24036516	87	107	bu-yang-huan-wu-tang	CPM	BU-YANG-HUAN-WU-TANG	
24036516	173	193	Bu-yang-huan-wu-tang	CPM	BU-YANG-HUAN-WU-TANG	
22465277	306	326	bu-yang-huan-wu-tang	CPM	BU-YANG-HUAN-WU-TANG	
22952787	68	88	Bu-Yang-Huan-Wu-Tang	CPM	BU-YANG-HUAN-WU-TANG	
22952787	149	169	Bu-yang-huan-wu-tang	CPM	BU-YANG-HUAN-WU-TANG	
25237385	193	213	Bu-Yang-Huan-Wu-Tang	CPM	BU-YANG-HUAN-WU-TANG	
29454341	29	48	Chai Hu Shu Gan San	CPM	CHAI-HU-SHU-GAN-SAN	
29454341	176	195	Chai Hu Shu Gan San	CPM	CHAI-HU-SHU-GAN-SAN	
29454341	361	380	Chai Hu Shu Gan San	CPM	CHAI-HU-SHU-GAN-SAN	
29454341	687	706	Chai Hu Shu Gan San	CPM	CHAI-HU-SHU-GAN-SAN	
29454341	1161	1180	Chai Hu Shu Gan San	CPM	CHAI-HU-SHU-GAN-SAN	
29454341	1525	1544	Chai Hu Shu Gan San	CPM	CHAI-HU-SHU-GAN-SAN	
29454341	1588	1607	Chai Hu Shu Gan San	CPM	CHAI-HU-SHU-GAN-SAN	
29454341	1702	1721	Chai Hu Shu Gan San	CPM	CHAI-HU-SHU-GAN-SAN	
29950058	35	62	Chaihu Jia Longgu Muli Tang	CPM	CHAI-HU-JIA-LONG-GU-MU-LI-TANG	
29950058	196	223	Chaihu Jia Longgu Muli Tang	CPM	CHAI-HU-JIA-LONG-GU-MU-LI-TANG	
29950058	1262	1289	Chaihu Jia Longgu Muli Tang	CPM	CHAI-HU-JIA-LONG-GU-MU-LI-TANG	
29950058	1619	1646	Chaihu Jia Longgu Muli Tang	CPM	CHAI-HU-JIA-LONG-GU-MU-LI-TANG	
29950058	2018	2045	Chaihu Jia Longgu Muli Tang	CPM	CHAI-HU-JIA-LONG-GU-MU-LI-TANG	
25204193	771	798	Chaihu Jia Longgu Muli tang	CPM	CHAI-HU-JIA-LONG-GU-MU-LI-TANG	
30235703	44	74	Chai-Hu-Jia-Long-Gu-Mu-Li-Tang	CPM	CHAI-HU-JIA-LONG-GU-MU-LI-TANG	
30235703	351	381	Chai-Hu-Jia-Long-Gu-Mu-Li-Tang	CPM	CHAI-HU-JIA-LONG-GU-MU-LI-TANG	
31601868	73	103	Chai-Hu-Jia-Long-Gu-Mu-Li-Tang	CPM	CHAI-HU-JIA-LONG-GU-MU-LI-TANG	
31682375	29	41	chengqi Tang	CPM	CHENG-QI-TANG	
31682375	174	186	chengqi Tang	CPM	CHENG-QI-TANG	
28168001	39	52	Cheng-Qi Tang	CPM	CHENG-QI-TANG	
28168001	455	468	Cheng-Qi Tang	CPM	CHENG-QI-TANG	
29982213	365	375	Da-Bu-Tang	CPM	DA-BU-TANG	
26236546	15	34	Danggui-Shaoyao-San	CPM	DANG-GUI-SHAO-YAO-SAN	
26236546	194	213	Danggui-Shaoyao-San	CPM	DANG-GUI-SHAO-YAO-SAN	
19164787	0	10	Danqi Pian	CPM	DAN-QI-PIAN	
19164787	349	359	Danqi Pian	CPM	DAN-QI-PIAN	
18417963	0	10	Danqi Pian	CPM	DAN-QI-PIAN	
18417963	166	176	Danqi Pian	CPM	DAN-QI-PIAN	
26983210	55	65	Danqi Pian	CPM	DAN-QI-PIAN	
26983210	136	146	Danqi Pian	CPM	DAN-QI-PIAN	
26983210	512	522	Danqi Pian	CPM	DAN-QI-PIAN	
26983210	578	588	Danqi Pian	CPM	DAN-QI-PIAN	
26983210	668	678	Danqi Pian	CPM	DAN-QI-PIAN	
26983210	2101	2111	Danqi Pian	CPM	DAN-QI-PIAN	
24673068	489	499	Danqi Pian	CPM	DAN-QI-PIAN	
24660600	23	32	Danqipian	CPM	DAN-QI-PIAN	
24660600	140	149	Danqipian	CPM	DAN-QI-PIAN	
18246677	426	443	Danshen Zhushe Ye	CPM	DAN-SHEN-ZHU-SHE-YE	
26275652	248	260	Di Huang Yin	CPM	DI-HUANG-YIN	
26275652	248	263	Di Huang Yin Zi	CPM	DI-HUANG-YIN-ZI	
12723757	171	184	diao-teng-san	CPM	DIAO-TENG-SAN	
25204193	877	888	Dihuang wan	CPM	DI-HUANG-WAN	
30641630	20	31	Dihuang Yin	CPM	DI-HUANG-YIN	
30641630	154	165	Dihuang Yin	CPM	DI-HUANG-YIN	
30641630	20	33	Dihuang Yinzi	CPM	DI-HUANG-YIN-ZI	
30641630	154	167	Dihuang Yinzi	CPM	DI-HUANG-YIN-ZI	
26817897	1510	1522	Di-Huang-Wan	CPM	DI-HUANG-WAN	
26275652	46	58	Di-huang-yin	CPM	DI-HUANG-YIN	
26275652	46	61	Di-huang-yin-zi	CPM	DI-HUANG-YIN-ZI	
28213110	1430	1450	Du-Huo-Ji-Sheng-Tang	CPM	DU-HUO-JI-SHENG-TANG	
27854047	28	38	Fuling-Wan	CPM	FU-LING-WAN	
27854047	280	290	Fuling-Wan	CPM	FU-LING-WAN	
13678228	147	158	Fu-Ling-Wan	CPM	FU-LING-WAN	
15481650	89	100	gancao-tang	CPM	GAN-CAO-TANG	
31331548	1553	1565	Gan-Cao-Tang	CPM	GAN-CAO-TANG	
26322893	901	913	Gan-Cao-Tang	CPM	GAN-CAO-TANG	
26322893	1560	1572	Gan-Cao-Tang	CPM	GAN-CAO-TANG	
31331548	1589	1600	Ge-Gen-Tang	CPM	GE-GEN-TANG	
25204193	807	818	Gouteng yin	CPM	GOU-TENG-YIN	
22696374	7	18	Gouteng Yin	CPM	GOU-TENG-YIN	
22696374	81	92	Gouteng Yin	CPM	GOU-TENG-YIN	
22696374	435	446	Gouteng Yin	CPM	GOU-TENG-YIN	
22696374	639	650	Gouteng Yin	CPM	GOU-TENG-YIN	
12895681	63	74	Gouteng-san	CPM	GOU-TENG-SAN	
10472819	430	442	GUI ZHI TANG	CPM	GUI-ZHI-TANG	
13678228	139	158	Gui-Zhi-Fu-Ling-Wan	CPM	GUI-ZHI-FU-LING-WAN	
21179728	556	565	he qi-yin	CPM	HE-QI-YIN	
15376392	16	38	huang lian jie du tang	CPM	HUANG-LIAN-JIE-DU-TANG	
15376392	138	160	Huang Lian Jie Du Tang	CPM	HUANG-LIAN-JIE-DU-TANG	
17963313	21	39	huanglianjiedutang	CPM	HUANG-LIAN-JIE-DU-TANG	
17963313	270	288	huanglianjiedutang	CPM	HUANG-LIAN-JIE-DU-TANG	
19253432	23	43	Huanglian-Jiedu-Tang	CPM	HUANG-LIAN-JIE-DU-TANG	
19253432	187	207	Huanglian-Jiedu-Tang	CPM	HUANG-LIAN-JIE-DU-TANG	
12204769	24	45	Huanglian-Jie-Du-Tang	CPM	HUANG-LIAN-JIE-DU-TANG	
12204769	209	230	Huanglian-Jie-Du-Tang	CPM	HUANG-LIAN-JIE-DU-TANG	
24751364	54	76	Huang-Lian-Jie-Du-Tang	CPM	HUANG-LIAN-JIE-DU-TANG	
24751364	188	210	Huang-Lian-Jie-Du-Tang	CPM	HUANG-LIAN-JIE-DU-TANG	
24707870	163	185	Huang-Lian-Jie-Du-Tang	CPM	HUANG-LIAN-JIE-DU-TANG	
24707870	267	289	Huang-Lian-Jie-Du-Tang	CPM	HUANG-LIAN-JIE-DU-TANG	
23628154	53	75	Huang-Lian-Jie-Du-Tang	CPM	HUANG-LIAN-JIE-DU-TANG	
23628154	155	177	Huang-Lian-Jie-Du-Tang	CPM	HUANG-LIAN-JIE-DU-TANG	
22387241	100	122	Huang-Lian-Jie-Du-Tang	CPM	HUANG-LIAN-JIE-DU-TANG	
22387241	156	178	Huang-Lian-Jie-Du-Tang	CPM	HUANG-LIAN-JIE-DU-TANG	
20093170	80	102	Huang-Lian-Jie-Du-Tang	CPM	HUANG-LIAN-JIE-DU-TANG	
31331548	1567	1587	Jia-Wei-Xiao-Yao-San	CPM	JIA-WEI-XIAO-YAO-SAN	
15376392	27	38	jie du tang	CPM	JIE-DU-TANG	
15376392	149	160	Jie Du Tang	CPM	JIE-DU-TANG	
17963313	30	39	jiedutang	CPM	JIE-DU-TANG	
17963313	279	288	jiedutang	CPM	JIE-DU-TANG	
19253432	33	43	Jiedu-Tang	CPM	JIE-DU-TANG	
19253432	197	207	Jiedu-Tang	CPM	JIE-DU-TANG	
24751364	65	76	Jie-Du-Tang	CPM	JIE-DU-TANG	
24751364	199	210	Jie-Du-Tang	CPM	JIE-DU-TANG	
24707870	174	185	Jie-Du-Tang	CPM	JIE-DU-TANG	
24707870	278	289	Jie-Du-Tang	CPM	JIE-DU-TANG	
23628154	64	75	Jie-Du-Tang	CPM	JIE-DU-TANG	
23628154	166	177	Jie-Du-Tang	CPM	JIE-DU-TANG	
22387241	111	122	Jie-Du-Tang	CPM	JIE-DU-TANG	
22387241	167	178	Jie-Du-Tang	CPM	JIE-DU-TANG	
20093170	91	102	Jie-Du-Tang	CPM	JIE-DU-TANG	
12204769	34	45	Jie-Du-Tang	CPM	JIE-DU-TANG	
12204769	219	230	Jie-Du-Tang	CPM	JIE-DU-TANG	
30194657	31	40	jieyu-san	CPM	JIE-YU-SAN	
30194657	239	248	jieyu-san	CPM	JIE-YU-SAN	
28213110	1437	1450	Ji-Sheng-Tang	CPM	JI-SHENG-TANG	
3934306	753	762	like Tang	CPM	LI-KE-TANG	
25204193	869	888	Liu Wei Dihuang wan	CPM	LIU-WEI-DI-HUANG-WAN	
26817897	1502	1522	Liu-Wei-Di-Huang-Wan	CPM	LIU-WEI-DI-HUANG-WAN	
23085726	1461	1482	Long Dan Xie Gan Tang	CPM	LONG-DAN-XIE-GAN-TANG	
10472819	186	199	MA HUANG TANG	CPM	MA-HUANG-TANG	
30192890	1470	1483	Ma Zi Ren Wan	CPM	MA-ZI-REN-WAN	
30024544	384	401	Mai-Men-Dong-Tang	CPM	MAI-MEN-DONG-TANG	
29950058	53	62	Muli Tang	CPM	MU-LI-TANG	
29950058	214	223	Muli Tang	CPM	MU-LI-TANG	
29950058	1280	1289	Muli Tang	CPM	MU-LI-TANG	
29950058	1637	1646	Muli Tang	CPM	MU-LI-TANG	
29950058	2036	2045	Muli Tang	CPM	MU-LI-TANG	
25204193	789	798	Muli tang	CPM	MU-LI-TANG	
30235703	64	74	Mu-Li-Tang	CPM	MU-LI-TANG	
30235703	371	381	Mu-Li-Tang	CPM	MU-LI-TANG	
31601868	93	103	Mu-Li-Tang	CPM	MU-LI-TANG	
31207256	88	100	Niuhuang Wan	CPM	NIU-HUANG-WAN	
31207256	299	311	Niuhuang Wan	CPM	NIU-HUANG-WAN	
31191319	59	71	Niuhuang Wan	CPM	NIU-HUANG-WAN	
31191319	130	142	Niuhuang Wan	CPM	NIU-HUANG-WAN	
24690773	8	21	Niu-Huang Wan	CPM	NIU-HUANG-WAN	
24690773	193	206	Niu-Huang Wan	CPM	NIU-HUANG-WAN	
25889685	89	102	qing fei tang	CPM	QING-FEI-TANG	
25889685	136	149	Qing fei tang	CPM	QING-FEI-TANG	
25889685	512	525	qing fei tang	CPM	QING-FEI-TANG	
25889685	984	997	qing fei tang	CPM	QING-FEI-TANG	
25889685	1023	1036	qing fei tang	CPM	QING-FEI-TANG	
25889685	1356	1369	qing fei tang	CPM	QING-FEI-TANG	
25889685	1371	1384	Qing fei tang	CPM	QING-FEI-TANG	
15015340	43	52	qishi wan	CPM	QI-SHI-WAN	
15015340	133	142	Qishi Wan	CPM	QI-SHI-WAN	
15015340	352	361	Qishi Wan	CPM	QI-SHI-WAN	
15015340	459	468	Qishi Wan	CPM	QI-SHI-WAN	
15015340	753	762	Qishi Wan	CPM	QI-SHI-WAN	
15015340	1342	1351	Qishi Wan	CPM	QI-SHI-WAN	
15015340	43	52	qishi wan	CPM	QI-SHI-WAN	
15015340	133	142	Qishi Wan	CPM	QI-SHI-WAN	
15015340	352	361	Qishi Wan	CPM	QI-SHI-WAN	
15015340	459	468	Qishi Wan	CPM	QI-SHI-WAN	
15015340	753	762	Qishi Wan	CPM	QI-SHI-WAN	
15015340	1342	1351	Qishi Wan	CPM	QI-SHI-WAN	
15015340	1424	1433	Qishi Wan	CPM	QI-SHI-WAN	
10472819	310	323	REN SHEN TANG	CPM	REN-SHEN-TANG	
29895489	8	20	Sansheng San	CPM	SAN-SHENG-SAN	
29895489	203	215	Sansheng San	CPM	SAN-SHENG-SAN	
15481650	82	100	shaoyaogancao-tang	CPM	SHAO-YAO-GAN-CAO-TANG	
31331548	1544	1565	Shao-Yao-Gan-Cao-Tang	CPM	SHAO-YAO-GAN-CAO-TANG	
26236546	23	34	Shaoyao-San	CPM	SHAO-YAO-SAN	
26236546	202	213	Shaoyao-San	CPM	SHAO-YAO-SAN	
27087890	200	213	Sheng Mai San	CPM	SHENG-MAI-SAN	
26058543	48	61	Sheng Mai San	CPM	SHENG-MAI-SAN	
26058543	307	320	Sheng Mai San	CPM	SHENG-MAI-SAN	
16173931	0	13	Sheng mai san	CPM	SHENG-MAI-SAN	
16173931	301	314	Sheng mai san	CPM	SHENG-MAI-SAN	
26983890	249	261	Shengmai san	CPM	SHENG-MAI-SAN	
16883630	87	99	Shengmai San	CPM	SHENG-MAI-SAN	
16883630	101	113	Shengmai San	CPM	SHENG-MAI-SAN	
15879682	0	12	Shengmai San	CPM	SHENG-MAI-SAN	
15879682	437	449	Shengmai San	CPM	SHENG-MAI-SAN	
15879682	1107	1119	Shengmai San	CPM	SHENG-MAI-SAN	
15879682	1470	1482	Shengmai San	CPM	SHENG-MAI-SAN	
15879682	1645	1657	Shengmai San	CPM	SHENG-MAI-SAN	
15699577	25	37	Shengmai San	CPM	SHENG-MAI-SAN	
15699577	192	204	Shengmai San	CPM	SHENG-MAI-SAN	
24801159	259	272	Sheng-mai San	CPM	SHENG-MAI-SAN	
26834461	249	262	Sheng-Mai-San	CPM	SHENG-MAI-SAN	
26322893	1014	1027	Sheng-Mai-San	CPM	SHENG-MAI-SAN	
28213110	1440	1450	Sheng-Tang	CPM	SHENG-TANG	
31885791	3	13	sheng-Tang	CPM	SHENG-TANG	
31885791	442	452	sheng-tang	CPM	SHENG-TANG	
31885791	1078	1088	sheng-tang	CPM	SHENG-TANG	
31885791	1228	1238	sheng-tang	CPM	SHENG-TANG	
31885791	1377	1387	sheng-tang	CPM	SHENG-TANG	
31885791	1603	1613	sheng-tang	CPM	SHENG-TANG	
31885791	1761	1771	sheng-tang	CPM	SHENG-TANG	
29895489	0	11	Shengui San	CPM	SHEN-GUI-SAN	
29895489	195	206	Shengui San	CPM	SHEN-GUI-SAN	
29982213	356	375	Shi-Quan-Da-Bu-Tang	CPM	SHI-QUAN-DA-BU-TANG	
29454341	37	48	Shu Gan San	CPM	SHU-GAN-SAN	
29454341	184	195	Shu Gan San	CPM	SHU-GAN-SAN	
29454341	369	380	Shu Gan San	CPM	SHU-GAN-SAN	
29454341	695	706	Shu Gan San	CPM	SHU-GAN-SAN	
29454341	1169	1180	Shu Gan San	CPM	SHU-GAN-SAN	
29454341	1533	1544	Shu Gan San	CPM	SHU-GAN-SAN	
29454341	1596	1607	Shu Gan San	CPM	SHU-GAN-SAN	
29454341	1710	1721	Shu Gan San	CPM	SHU-GAN-SAN	
29599893	18	31	Shuanghe-Tang	CPM	SHUANG-HE-TANG	
29599893	943	956	Shuanghe-tang	CPM	SHUANG-HE-TANG	
29599893	997	1010	Shuanghe-tang	CPM	SHUANG-HE-TANG	
29599893	1419	1432	Shuanghe-tang	CPM	SHUANG-HE-TANG	
29599893	1537	1550	Shuanghe-tang	CPM	SHUANG-HE-TANG	
10472819	374	383	SI NI SAN	CPM	SI-NI-SAN	
10472819	495	505	SI WU TANG	CPM	SI-WU-TANG	
29599893	968	977	siwu-tang	CPM	SI-WU-TANG	
29599893	1280	1289	siwu-tang	CPM	SI-WU-TANG	
21762767	196	209	SuHeXiang Wan	CPM	SU-HE-XIANG-WAN	
21333721	26	39	SuHeXiang Wan	CPM	SU-HE-XIANG-WAN	
21333721	103	116	SuHeXiang Wan	CPM	SU-HE-XIANG-WAN	
21905282	0	13	SuHeXiang Wan	CPM	SU-HE-XIANG-WAN	
21905282	137	150	SuHeXiang Wan	CPM	SU-HE-XIANG-WAN	
31682375	23	41	Taorenchengqi Tang	CPM	TAO-REN-CHENG-QI-TANG	
31682375	168	186	Taorenchengqi Tang	CPM	TAO-REN-CHENG-QI-TANG	
28168001	31	52	Tao-Ren-Cheng-Qi Tang	CPM	TAO-REN-CHENG-QI-TANG	
28168001	447	468	Tao-Ren-Cheng-Qi Tang	CPM	TAO-REN-CHENG-QI-TANG	
25204193	800	818	Tianma Gouteng yin	CPM	TIAN-MA-GOU-TENG-YIN	
22696374	0	18	Tianma Gouteng Yin	CPM	TIAN-MA-GOU-TENG-YIN	
22696374	74	92	Tianma Gouteng Yin	CPM	TIAN-MA-GOU-TENG-YIN	
22696374	428	446	Tianma Gouteng Yin	CPM	TIAN-MA-GOU-TENG-YIN	
22696374	632	650	Tianma Gouteng Yin	CPM	TIAN-MA-GOU-TENG-YIN	
31885791	0	13	Weisheng-Tang	CPM	WEI-SHENG-TANG	
31885791	439	452	Weisheng-tang	CPM	WEI-SHENG-TANG	
31885791	1075	1088	Weisheng-tang	CPM	WEI-SHENG-TANG	
31885791	1225	1238	Weisheng-tang	CPM	WEI-SHENG-TANG	
31885791	1374	1387	Weisheng-tang	CPM	WEI-SHENG-TANG	
31885791	1600	1613	Weisheng-tang	CPM	WEI-SHENG-TANG	
31885791	1758	1771	Weisheng-tang	CPM	WEI-SHENG-TANG	
11367657	11	21	Wulong Dan	CPM	WU-LONG-DAN	
11367657	164	174	Wulong Dan	CPM	WU-LONG-DAN	
31331548	1575	1587	Xiao-Yao-San	CPM	XIAO-YAO-SAN	
23085726	1470	1482	Xie Gan Tang	CPM	XIE-GAN-TANG	
26549268	1531	1543	Xie-Xin-Tang	CPM	XIE-XIN-TANG	
26549268	1697	1709	Xie-Xin-Tang	CPM	XIE-XIN-TANG	
20091603	2015	2023	Xifenwan	CPM	XI-FEN-WAN	
26817897	1547	1558	Yu-Quan-Wan	CPM	YU-QUAN-WAN	
29599893	961	977	Zengsunsiwu-tang	CPM	ZENG-SUN-SI-WU-TANG	
29599893	1273	1289	Zengsunsiwu-tang	CPM	ZENG-SUN-SI-WU-TANG	
10472819	248	260	ZHEN WU TANG	CPM	ZHEN-WU-TANG	
26322893	897	913	Zhi-Gan-Cao-Tang	CPM	ZHI-GAN-CAO-TANG	
26322893	1556	1572	Zhi-Gan-Cao-Tang	CPM	ZHI-GAN-CAO-TANG	
31331548	1623	1634	Zhi-Mu-Tang	CPM	ZHI-MU-TANG	
28213110	1413	1424	Zhu-Yu-Tang	CPM	ZHU-YU-TANG	
26322893	989	1000	Zhu-Yu-Tang	CPM	ZHU-YU-TANG	